
kernel/kernel.elf:     file format elf32-littlearm


Disassembly of section .text:

00008000 <__start>:
    8000:	e10f0000 	mrs	r0, CPSR
    8004:	e321f0d2 	msr	CPSR_c, #210	; 0xd2
    8008:	e59fd034 	ldr	sp, [pc, #52]	; 8044 <hang+0x8>
    800c:	e121f000 	msr	CPSR_c, r0
    8010:	e59fd030 	ldr	sp, [pc, #48]	; 8048 <hang+0xc>
    8014:	e59f0030 	ldr	r0, [pc, #48]	; 804c <hang+0x10>
    8018:	e59f1030 	ldr	r1, [pc, #48]	; 8050 <hang+0x14>
    801c:	e3a02000 	mov	r2, #0
    8020:	e3a03000 	mov	r3, #0
    8024:	e3a04000 	mov	r4, #0
    8028:	e3a05000 	mov	r5, #0

0000802c <bss_loop>:
    802c:	e8a0003c 	stmia	r0!, {r2, r3, r4, r5}
    8030:	e1500001 	cmp	r0, r1
    8034:	3afffffc 	bcc	802c <bss_loop>
    8038:	eb000086 	bl	8258 <kernel_main>

0000803c <hang>:
    803c:	e320f003 	wfi
    8040:	eafffffd 	b	803c <hang>
    8044:	0014f000 	andseq	pc, r4, r0
    8048:	0013e000 	andseq	lr, r3, r0
    804c:	0000d000 	andeq	sp, r0, r0
    8050:	0002e000 	andeq	lr, r2, r0

00008054 <led_init>:
    8054:	e92d4008 	push	{r3, lr}
    8058:	e3a0002f 	mov	r0, #47	; 0x2f
    805c:	e3a01001 	mov	r1, #1
    8060:	eb000013 	bl	80b4 <gpio_config>
    8064:	e3a00023 	mov	r0, #35	; 0x23
    8068:	e3a01001 	mov	r1, #1
    806c:	eb000010 	bl	80b4 <gpio_config>
    8070:	e8bd8008 	pop	{r3, pc}

00008074 <led_set_green>:
    8074:	e92d4008 	push	{r3, lr}
    8078:	e3a0002f 	mov	r0, #47	; 0x2f
    807c:	eb000021 	bl	8108 <gpio_set>
    8080:	e8bd8008 	pop	{r3, pc}

00008084 <led_clr_green>:
    8084:	e92d4008 	push	{r3, lr}
    8088:	e3a0002f 	mov	r0, #47	; 0x2f
    808c:	eb00002e 	bl	814c <gpio_clr>
    8090:	e8bd8008 	pop	{r3, pc}

00008094 <led_set_red>:
    8094:	e92d4008 	push	{r3, lr}
    8098:	e3a00023 	mov	r0, #35	; 0x23
    809c:	eb000019 	bl	8108 <gpio_set>
    80a0:	e8bd8008 	pop	{r3, pc}

000080a4 <led_clr_red>:
    80a4:	e92d4008 	push	{r3, lr}
    80a8:	e3a00023 	mov	r0, #35	; 0x23
    80ac:	eb000026 	bl	814c <gpio_clr>
    80b0:	e8bd8008 	pop	{r3, pc}

000080b4 <gpio_config>:
    80b4:	e3510007 	cmp	r1, #7
    80b8:	93500035 	cmpls	r0, #53	; 0x35
    80bc:	812fff1e 	bxhi	lr
    80c0:	e30c2ccd 	movw	r2, #52429	; 0xcccd
    80c4:	e34c2ccc 	movt	r2, #52428	; 0xcccc
    80c8:	e0832290 	umull	r2, r3, r0, r2
    80cc:	e1a0c1a3 	lsr	ip, r3, #3
    80d0:	e6ef307c 	uxtb	r3, ip
    80d4:	e1a03103 	lsl	r3, r3, #2
    80d8:	e283343f 	add	r3, r3, #1056964608	; 0x3f000000
    80dc:	e2833602 	add	r3, r3, #2097152	; 0x200000
    80e0:	e5932000 	ldr	r2, [r3]
    80e4:	e08cc10c 	add	ip, ip, ip, lsl #2
    80e8:	e040008c 	sub	r0, r0, ip, lsl #1
    80ec:	e6ef0070 	uxtb	r0, r0
    80f0:	e0800080 	add	r0, r0, r0, lsl #1
    80f4:	e3a0c007 	mov	ip, #7
    80f8:	e1c2201c 	bic	r2, r2, ip, lsl r0
    80fc:	e1820011 	orr	r0, r2, r1, lsl r0
    8100:	e5830000 	str	r0, [r3]
    8104:	e12fff1e 	bx	lr

00008108 <gpio_set>:
    8108:	e3500035 	cmp	r0, #53	; 0x35
    810c:	812fff1e 	bxhi	lr
    8110:	e350001f 	cmp	r0, #31
    8114:	9a000006 	bls	8134 <gpio_set+0x2c>
    8118:	e2400020 	sub	r0, r0, #32
    811c:	e3a03001 	mov	r3, #1
    8120:	e1a00013 	lsl	r0, r3, r0
    8124:	e3a03000 	mov	r3, #0
    8128:	e3433f20 	movt	r3, #16160	; 0x3f20
    812c:	e5830020 	str	r0, [r3, #32]
    8130:	e12fff1e 	bx	lr
    8134:	e3a03001 	mov	r3, #1
    8138:	e1a00013 	lsl	r0, r3, r0
    813c:	e3a03000 	mov	r3, #0
    8140:	e3433f20 	movt	r3, #16160	; 0x3f20
    8144:	e583001c 	str	r0, [r3, #28]
    8148:	e12fff1e 	bx	lr

0000814c <gpio_clr>:
    814c:	e3500035 	cmp	r0, #53	; 0x35
    8150:	812fff1e 	bxhi	lr
    8154:	e350001f 	cmp	r0, #31
    8158:	9a000006 	bls	8178 <gpio_clr+0x2c>
    815c:	e2400020 	sub	r0, r0, #32
    8160:	e3a03001 	mov	r3, #1
    8164:	e1a00013 	lsl	r0, r3, r0
    8168:	e3a03000 	mov	r3, #0
    816c:	e3433f20 	movt	r3, #16160	; 0x3f20
    8170:	e583002c 	str	r0, [r3, #44]	; 0x2c
    8174:	e12fff1e 	bx	lr
    8178:	e3a03001 	mov	r3, #1
    817c:	e1a00013 	lsl	r0, r3, r0
    8180:	e3a03000 	mov	r3, #0
    8184:	e3433f20 	movt	r3, #16160	; 0x3f20
    8188:	e5830028 	str	r0, [r3, #40]	; 0x28
    818c:	e12fff1e 	bx	lr

00008190 <gpio_set_pull>:
    8190:	e3510002 	cmp	r1, #2
    8194:	93500035 	cmpls	r0, #53	; 0x35
    8198:	812fff1e 	bxhi	lr
    819c:	e92d4038 	push	{r3, r4, r5, lr}
    81a0:	e1a04000 	mov	r4, r0
    81a4:	e3a03000 	mov	r3, #0
    81a8:	e3433f20 	movt	r3, #16160	; 0x3f20
    81ac:	e5831094 	str	r1, [r3, #148]	; 0x94
    81b0:	e3a00096 	mov	r0, #150	; 0x96
    81b4:	eb00052d 	bl	9670 <delay_cycles>
    81b8:	e354001f 	cmp	r4, #31
    81bc:	9a00000a 	bls	81ec <gpio_set_pull+0x5c>
    81c0:	e2440020 	sub	r0, r4, #32
    81c4:	e3a04001 	mov	r4, #1
    81c8:	e1a00014 	lsl	r0, r4, r0
    81cc:	e3a05000 	mov	r5, #0
    81d0:	e3435f20 	movt	r5, #16160	; 0x3f20
    81d4:	e585009c 	str	r0, [r5, #156]	; 0x9c
    81d8:	e3a00096 	mov	r0, #150	; 0x96
    81dc:	eb000523 	bl	9670 <delay_cycles>
    81e0:	e3a03000 	mov	r3, #0
    81e4:	e585309c 	str	r3, [r5, #156]	; 0x9c
    81e8:	e8bd8038 	pop	{r3, r4, r5, pc}
    81ec:	e3a00001 	mov	r0, #1
    81f0:	e1a00410 	lsl	r0, r0, r4
    81f4:	e3a05000 	mov	r5, #0
    81f8:	e3435f20 	movt	r5, #16160	; 0x3f20
    81fc:	e5850098 	str	r0, [r5, #152]	; 0x98
    8200:	e3a00096 	mov	r0, #150	; 0x96
    8204:	eb000519 	bl	9670 <delay_cycles>
    8208:	e3a03000 	mov	r3, #0
    820c:	e5853098 	str	r3, [r5, #152]	; 0x98
    8210:	e8bd8038 	pop	{r3, r4, r5, pc}

00008214 <initialize_priority_map>:
    8214:	e92d4010 	push	{r4, lr}
    8218:	e3a03000 	mov	r3, #0
    821c:	e30d0e84 	movw	r0, #56964	; 0xde84
    8220:	e3400002 	movt	r0, #2
    8224:	e30d1004 	movw	r1, #53252	; 0xd004
    8228:	e3401000 	movt	r1, #0
    822c:	e3014074 	movw	r4, #4212	; 0x1074
    8230:	e301e068 	movw	lr, #4200	; 0x1068
    8234:	e1a0c003 	mov	ip, r3
    8238:	e7803103 	str	r3, [r0, r3, lsl #2]
    823c:	e0221394 	mla	r2, r4, r3, r1
    8240:	e082200e 	add	r2, r2, lr
    8244:	e582c004 	str	ip, [r2, #4]
    8248:	e2833001 	add	r3, r3, #1
    824c:	e3530020 	cmp	r3, #32
    8250:	1afffff8 	bne	8238 <initialize_priority_map+0x24>
    8254:	e8bd8010 	pop	{r4, pc}

00008258 <kernel_main>:
    8258:	e92d4008 	push	{r3, lr}
    825c:	eb000239 	bl	8b48 <uart_init>
    8260:	eb0002d5 	bl	8dbc <adc_init>
    8264:	ebffffea 	bl	8214 <initialize_priority_map>
    8268:	eb000520 	bl	96f0 <install_interrupt_table>
    826c:	eb000506 	bl	968c <disable_interrupts>
    8270:	eb0002bf 	bl	8d74 <timer_stop>
    8274:	eb000554 	bl	97cc <enter_user_mode>
    8278:	e8bd8008 	pop	{r3, pc}

0000827c <scheduler>:
    827c:	e92d47f0 	push	{r4, r5, r6, r7, r8, r9, sl, lr}
    8280:	e30c3000 	movw	r3, #49152	; 0xc000
    8284:	e3403000 	movt	r3, #0
    8288:	e5933000 	ldr	r3, [r3]
    828c:	e3730001 	cmn	r3, #1
    8290:	0a00009e 	beq	8510 <scheduler+0x294>
    8294:	e30c3000 	movw	r3, #49152	; 0xc000
    8298:	e3403000 	movt	r3, #0
    829c:	e5932000 	ldr	r2, [r3]
    82a0:	e30d3e84 	movw	r3, #56964	; 0xde84
    82a4:	e3403002 	movt	r3, #2
    82a8:	e7935102 	ldr	r5, [r3, r2, lsl #2]
    82ac:	e30d2004 	movw	r2, #53252	; 0xd004
    82b0:	e3402000 	movt	r2, #0
    82b4:	e3013074 	movw	r3, #4212	; 0x1074
    82b8:	e0232593 	mla	r3, r3, r5, r2
    82bc:	e2833d41 	add	r3, r3, #4160	; 0x1040
    82c0:	e2833028 	add	r3, r3, #40	; 0x28
    82c4:	e5933004 	ldr	r3, [r3, #4]
    82c8:	e3530000 	cmp	r3, #0
    82cc:	1a000004 	bne	82e4 <scheduler+0x68>
    82d0:	e30b0014 	movw	r0, #45076	; 0xb014
    82d4:	e3400000 	movt	r0, #0
    82d8:	eb0001ac 	bl	8990 <printk>
    82dc:	e3a00001 	mov	r0, #1
    82e0:	eb0002d4 	bl	8e38 <syscall_exit>
    82e4:	e30d2004 	movw	r2, #53252	; 0xd004
    82e8:	e3402000 	movt	r2, #0
    82ec:	e3013074 	movw	r3, #4212	; 0x1074
    82f0:	e0232593 	mla	r3, r3, r5, r2
    82f4:	e5932058 	ldr	r2, [r3, #88]	; 0x58
    82f8:	e2822001 	add	r2, r2, #1
    82fc:	e5832058 	str	r2, [r3, #88]	; 0x58
    8300:	e5932058 	ldr	r2, [r3, #88]	; 0x58
    8304:	e5933050 	ldr	r3, [r3, #80]	; 0x50
    8308:	e1520003 	cmp	r2, r3
    830c:	9a000007 	bls	8330 <scheduler+0xb4>
    8310:	e30c3000 	movw	r3, #49152	; 0xc000
    8314:	e3403000 	movt	r3, #0
    8318:	e5932000 	ldr	r2, [r3]
    831c:	e30d3e84 	movw	r3, #56964	; 0xde84
    8320:	e3403002 	movt	r3, #2
    8324:	e7933102 	ldr	r3, [r3, r2, lsl #2]
    8328:	e353001f 	cmp	r3, #31
    832c:	1a000006 	bne	834c <scheduler+0xd0>
    8330:	e30d2004 	movw	r2, #53252	; 0xd004
    8334:	e3402000 	movt	r2, #0
    8338:	e3013074 	movw	r3, #4212	; 0x1074
    833c:	e0232593 	mla	r3, r3, r5, r2
    8340:	e5d33068 	ldrb	r3, [r3, #104]	; 0x68
    8344:	e31300ff 	tst	r3, #255	; 0xff
    8348:	1a000070 	bne	8510 <scheduler+0x294>
    834c:	e30d3004 	movw	r3, #53252	; 0xd004
    8350:	e3403000 	movt	r3, #0
    8354:	e3014074 	movw	r4, #4212	; 0x1074
    8358:	e0243594 	mla	r4, r4, r5, r3
    835c:	e3a06000 	mov	r6, #0
    8360:	e5846058 	str	r6, [r4, #88]	; 0x58
    8364:	e594c05c 	ldr	ip, [r4, #92]	; 0x5c
    8368:	e30d3f0c 	movw	r3, #57100	; 0xdf0c
    836c:	e3403002 	movt	r3, #2
    8370:	e5931000 	ldr	r1, [r3]
    8374:	e3a02001 	mov	r2, #1
    8378:	e1811c12 	orr	r1, r1, r2, lsl ip
    837c:	e5831000 	str	r1, [r3]
    8380:	e594005c 	ldr	r0, [r4, #92]	; 0x5c
    8384:	e30d3f08 	movw	r3, #57096	; 0xdf08
    8388:	e3403002 	movt	r3, #2
    838c:	e5931000 	ldr	r1, [r3]
    8390:	e1c12012 	bic	r2, r1, r2, lsl r0
    8394:	e5832000 	str	r2, [r3]
    8398:	e5945054 	ldr	r5, [r4, #84]	; 0x54
    839c:	e30d3f04 	movw	r3, #57092	; 0xdf04
    83a0:	e3403002 	movt	r3, #2
    83a4:	e5930000 	ldr	r0, [r3]
    83a8:	e1a01005 	mov	r1, r5
    83ac:	eb000511 	bl	97f8 <__aeabi_uidiv>
    83b0:	e2800001 	add	r0, r0, #1
    83b4:	e0050095 	mul	r5, r5, r0
    83b8:	e5845064 	str	r5, [r4, #100]	; 0x64
    83bc:	e5c46068 	strb	r6, [r4, #104]	; 0x68
    83c0:	e30c3000 	movw	r3, #49152	; 0xc000
    83c4:	e3403000 	movt	r3, #0
    83c8:	e3e02000 	mvn	r2, #0
    83cc:	e5832000 	str	r2, [r3]
    83d0:	ea00004e 	b	8510 <scheduler+0x294>
    83d4:	e5912000 	ldr	r2, [r1]
    83d8:	e1a02332 	lsr	r2, r2, r3
    83dc:	e3120001 	tst	r2, #1
    83e0:	0a000013 	beq	8434 <scheduler+0x1b8>
    83e4:	e022039c 	mla	r2, ip, r3, r0
    83e8:	e082200e 	add	r2, r2, lr
    83ec:	e5922004 	ldr	r2, [r2, #4]
    83f0:	e3520000 	cmp	r2, #0
    83f4:	0a00000e 	beq	8434 <scheduler+0x1b8>
    83f8:	e022039c 	mla	r2, ip, r3, r0
    83fc:	e5928064 	ldr	r8, [r2, #100]	; 0x64
    8400:	e5942000 	ldr	r2, [r4]
    8404:	e1580002 	cmp	r8, r2
    8408:	1a000009 	bne	8434 <scheduler+0x1b8>
    840c:	e028039c 	mla	r8, ip, r3, r0
    8410:	e598a05c 	ldr	sl, [r8, #92]	; 0x5c
    8414:	e5912000 	ldr	r2, [r1]
    8418:	e1c22a16 	bic	r2, r2, r6, lsl sl
    841c:	e5812000 	str	r2, [r1]
    8420:	e598905c 	ldr	r9, [r8, #92]	; 0x5c
    8424:	e5952000 	ldr	r2, [r5]
    8428:	e1822916 	orr	r2, r2, r6, lsl r9
    842c:	e5852000 	str	r2, [r5]
    8430:	e5c87068 	strb	r7, [r8, #104]	; 0x68
    8434:	e2833001 	add	r3, r3, #1
    8438:	e3530020 	cmp	r3, #32
    843c:	1affffe4 	bne	83d4 <scheduler+0x158>
    8440:	e30d3f08 	movw	r3, #57096	; 0xdf08
    8444:	e3403002 	movt	r3, #2
    8448:	e5933000 	ldr	r3, [r3]
    844c:	e6ff3f33 	rbit	r3, r3
    8450:	e16f3f13 	clz	r3, r3
    8454:	e30d2e84 	movw	r2, #56964	; 0xde84
    8458:	e3402002 	movt	r2, #2
    845c:	e7922103 	ldr	r2, [r2, r3, lsl #2]
    8460:	e30c3000 	movw	r3, #49152	; 0xc000
    8464:	e3403000 	movt	r3, #0
    8468:	e5933000 	ldr	r3, [r3]
    846c:	e3730001 	cmn	r3, #1
    8470:	1a00000c 	bne	84a8 <scheduler+0x22c>
    8474:	e30d1004 	movw	r1, #53252	; 0xd004
    8478:	e3401000 	movt	r1, #0
    847c:	e3013074 	movw	r3, #4212	; 0x1074
    8480:	e0231293 	mla	r3, r3, r2, r1
    8484:	e3a01001 	mov	r1, #1
    8488:	e5c31068 	strb	r1, [r3, #104]	; 0x68
    848c:	e5931058 	ldr	r1, [r3, #88]	; 0x58
    8490:	e2811001 	add	r1, r1, #1
    8494:	e5831058 	str	r1, [r3, #88]	; 0x58
    8498:	e30c3000 	movw	r3, #49152	; 0xc000
    849c:	e3403000 	movt	r3, #0
    84a0:	e5832000 	str	r2, [r3]
    84a4:	e8bd87f0 	pop	{r4, r5, r6, r7, r8, r9, sl, pc}
    84a8:	e30c3000 	movw	r3, #49152	; 0xc000
    84ac:	e3403000 	movt	r3, #0
    84b0:	e5933000 	ldr	r3, [r3]
    84b4:	e1520003 	cmp	r2, r3
    84b8:	28bd87f0 	popcs	{r4, r5, r6, r7, r8, r9, sl, pc}
    84bc:	e30c0000 	movw	r0, #49152	; 0xc000
    84c0:	e3400000 	movt	r0, #0
    84c4:	e5903000 	ldr	r3, [r0]
    84c8:	e30d1e84 	movw	r1, #56964	; 0xde84
    84cc:	e3401002 	movt	r1, #2
    84d0:	e791c103 	ldr	ip, [r1, r3, lsl #2]
    84d4:	e30d3004 	movw	r3, #53252	; 0xd004
    84d8:	e3403000 	movt	r3, #0
    84dc:	e301e074 	movw	lr, #4212	; 0x1074
    84e0:	e02c3c9e 	mla	ip, lr, ip, r3
    84e4:	e3a04002 	mov	r4, #2
    84e8:	e5cc4068 	strb	r4, [ip, #104]	; 0x68
    84ec:	e7911102 	ldr	r1, [r1, r2, lsl #2]
    84f0:	e023319e 	mla	r3, lr, r1, r3
    84f4:	e3a01001 	mov	r1, #1
    84f8:	e5c31068 	strb	r1, [r3, #104]	; 0x68
    84fc:	e5931058 	ldr	r1, [r3, #88]	; 0x58
    8500:	e2811001 	add	r1, r1, #1
    8504:	e5831058 	str	r1, [r3, #88]	; 0x58
    8508:	e5802000 	str	r2, [r0]
    850c:	e8bd87f0 	pop	{r4, r5, r6, r7, r8, r9, sl, pc}
    8510:	e3a03000 	mov	r3, #0
    8514:	e30d1f0c 	movw	r1, #57100	; 0xdf0c
    8518:	e3401002 	movt	r1, #2
    851c:	e30d0004 	movw	r0, #53252	; 0xd004
    8520:	e3400000 	movt	r0, #0
    8524:	e301c074 	movw	ip, #4212	; 0x1074
    8528:	e301e068 	movw	lr, #4200	; 0x1068
    852c:	e30d4f04 	movw	r4, #57092	; 0xdf04
    8530:	e3404002 	movt	r4, #2
    8534:	e3a06001 	mov	r6, #1
    8538:	e30d5f08 	movw	r5, #57096	; 0xdf08
    853c:	e3405002 	movt	r5, #2
    8540:	e3a07002 	mov	r7, #2
    8544:	eaffffa2 	b	83d4 <scheduler+0x158>

00008548 <save_context>:
    8548:	e92d4070 	push	{r4, r5, r6, lr}
    854c:	e30c3000 	movw	r3, #49152	; 0xc000
    8550:	e3403000 	movt	r3, #0
    8554:	e5932000 	ldr	r2, [r3]
    8558:	e30d3e84 	movw	r3, #56964	; 0xde84
    855c:	e3403002 	movt	r3, #2
    8560:	e7934102 	ldr	r4, [r3, r2, lsl #2]
    8564:	e2802018 	add	r2, r0, #24
    8568:	e1a0c000 	mov	ip, r0
    856c:	e3a01000 	mov	r1, #0
    8570:	e30d6004 	movw	r6, #53252	; 0xd004
    8574:	e3406000 	movt	r6, #0
    8578:	e0845284 	add	r5, r4, r4, lsl #5
    857c:	e0645185 	rsb	r5, r4, r5, lsl #3
    8580:	e0845105 	add	r5, r4, r5, lsl #2
    8584:	e49ce004 	ldr	lr, [ip], #4
    8588:	e0853001 	add	r3, r5, r1
    858c:	e283300c 	add	r3, r3, #12
    8590:	e0863103 	add	r3, r6, r3, lsl #2
    8594:	e583e008 	str	lr, [r3, #8]
    8598:	e2811001 	add	r1, r1, #1
    859c:	e15c0002 	cmp	ip, r2
    85a0:	1afffff7 	bne	8584 <save_context+0x3c>
    85a4:	e280604c 	add	r6, r0, #76	; 0x4c
    85a8:	e3a01000 	mov	r1, #0
    85ac:	e30d5004 	movw	r5, #53252	; 0xd004
    85b0:	e3405000 	movt	r5, #0
    85b4:	e084e284 	add	lr, r4, r4, lsl #5
    85b8:	e064e18e 	rsb	lr, r4, lr, lsl #3
    85bc:	e084e10e 	add	lr, r4, lr, lsl #2
    85c0:	e492c004 	ldr	ip, [r2], #4
    85c4:	e08e3001 	add	r3, lr, r1
    85c8:	e0853103 	add	r3, r5, r3, lsl #2
    85cc:	e583c004 	str	ip, [r3, #4]
    85d0:	e2811001 	add	r1, r1, #1
    85d4:	e1520006 	cmp	r2, r6
    85d8:	1afffff8 	bne	85c0 <save_context+0x78>
    85dc:	e5b0104c 	ldr	r1, [r0, #76]!	; 0x4c
    85e0:	e30d2004 	movw	r2, #53252	; 0xd004
    85e4:	e3402000 	movt	r2, #0
    85e8:	e3013074 	movw	r3, #4212	; 0x1074
    85ec:	e0040493 	mul	r4, r3, r4
    85f0:	e7821004 	str	r1, [r2, r4]
    85f4:	e8bd8070 	pop	{r4, r5, r6, pc}

000085f8 <restore_context>:
    85f8:	e92d4030 	push	{r4, r5, lr}
    85fc:	e30c3000 	movw	r3, #49152	; 0xc000
    8600:	e3403000 	movt	r3, #0
    8604:	e5932000 	ldr	r2, [r3]
    8608:	e30d3e84 	movw	r3, #56964	; 0xde84
    860c:	e3403002 	movt	r3, #2
    8610:	e793e102 	ldr	lr, [r3, r2, lsl #2]
    8614:	e30d2004 	movw	r2, #53252	; 0xd004
    8618:	e3402000 	movt	r2, #0
    861c:	e3013074 	movw	r3, #4212	; 0x1074
    8620:	e0030e93 	mul	r3, r3, lr
    8624:	e7923003 	ldr	r3, [r2, r3]
    8628:	e1a02000 	mov	r2, r0
    862c:	e4023004 	str	r3, [r2], #-4
    8630:	e2405038 	sub	r5, r0, #56	; 0x38
    8634:	e3a0100c 	mov	r1, #12
    8638:	e30d4004 	movw	r4, #53252	; 0xd004
    863c:	e3404000 	movt	r4, #0
    8640:	e08ec28e 	add	ip, lr, lr, lsl #5
    8644:	e06ec18c 	rsb	ip, lr, ip, lsl #3
    8648:	e08ec10c 	add	ip, lr, ip, lsl #2
    864c:	e08c3001 	add	r3, ip, r1
    8650:	e0843103 	add	r3, r4, r3, lsl #2
    8654:	e5933004 	ldr	r3, [r3, #4]
    8658:	e4023004 	str	r3, [r2], #-4
    865c:	e2411001 	sub	r1, r1, #1
    8660:	e1520005 	cmp	r2, r5
    8664:	1afffff8 	bne	864c <restore_context+0x54>
    8668:	e2401038 	sub	r1, r0, #56	; 0x38
    866c:	e2404050 	sub	r4, r0, #80	; 0x50
    8670:	e3a02005 	mov	r2, #5
    8674:	e30dc004 	movw	ip, #53252	; 0xd004
    8678:	e340c000 	movt	ip, #0
    867c:	e08e328e 	add	r3, lr, lr, lsl #5
    8680:	e06e3183 	rsb	r3, lr, r3, lsl #3
    8684:	e08ee103 	add	lr, lr, r3, lsl #2
    8688:	e08e3002 	add	r3, lr, r2
    868c:	e283300c 	add	r3, r3, #12
    8690:	e08c3103 	add	r3, ip, r3, lsl #2
    8694:	e5933008 	ldr	r3, [r3, #8]
    8698:	e4013004 	str	r3, [r1], #-4
    869c:	e2422001 	sub	r2, r2, #1
    86a0:	e1510004 	cmp	r1, r4
    86a4:	1afffff7 	bne	8688 <restore_context+0x90>
    86a8:	e240004c 	sub	r0, r0, #76	; 0x4c
    86ac:	e8bd8030 	pop	{r4, r5, pc}

000086b0 <irq_c_handler>:
    86b0:	e92d4010 	push	{r4, lr}
    86b4:	e1a04000 	mov	r4, r0
    86b8:	eb0001b5 	bl	8d94 <timer_is_pending>
    86bc:	e3500000 	cmp	r0, #0
    86c0:	0a000017 	beq	8724 <irq_c_handler+0x74>
    86c4:	eb0001b7 	bl	8da8 <timer_clear_pending>
    86c8:	e30d3f04 	movw	r3, #57092	; 0xdf04
    86cc:	e3403002 	movt	r3, #2
    86d0:	e5932000 	ldr	r2, [r3]
    86d4:	e2822001 	add	r2, r2, #1
    86d8:	e5832000 	str	r2, [r3]
    86dc:	e30c3000 	movw	r3, #49152	; 0xc000
    86e0:	e3403000 	movt	r3, #0
    86e4:	e5933004 	ldr	r3, [r3, #4]
    86e8:	e3530000 	cmp	r3, #0
    86ec:	0a000005 	beq	8708 <irq_c_handler+0x58>
    86f0:	e284404c 	add	r4, r4, #76	; 0x4c
    86f4:	e30c3000 	movw	r3, #49152	; 0xc000
    86f8:	e3403000 	movt	r3, #0
    86fc:	e3a02000 	mov	r2, #0
    8700:	e5832004 	str	r2, [r3, #4]
    8704:	ea000002 	b	8714 <irq_c_handler+0x64>
    8708:	e1a00004 	mov	r0, r4
    870c:	ebffff8d 	bl	8548 <save_context>
    8710:	e1a04000 	mov	r4, r0
    8714:	ebfffed8 	bl	827c <scheduler>
    8718:	e1a00004 	mov	r0, r4
    871c:	ebffffb5 	bl	85f8 <restore_context>
    8720:	e8bd8010 	pop	{r4, pc}
    8724:	e1a00004 	mov	r0, r4
    8728:	e8bd8010 	pop	{r4, pc}

0000872c <swi_c_handler>:
    872c:	e52de004 	push	{lr}		; (str lr, [sp, #-4]!)
    8730:	e24dd00c 	sub	sp, sp, #12
    8734:	e1a0c001 	mov	ip, r1
    8738:	e3500011 	cmp	r0, #17
    873c:	979ff100 	ldrls	pc, [pc, r0, lsl #2]
    8740:	ea000057 	b	88a4 <swi_c_handler+0x178>
    8744:	0000878c 	andeq	r8, r0, ip, lsl #15
    8748:	00008798 	muleq	r0, r8, r7
    874c:	000087ac 	andeq	r8, r0, ip, lsr #15
    8750:	000087b8 			; <UNDEFINED> instruction: 0x000087b8
    8754:	000087c8 	andeq	r8, r0, r8, asr #15
    8758:	000087d4 	ldrdeq	r8, [r0], -r4
    875c:	000087e8 	andeq	r8, r0, r8, ror #15
    8760:	000087fc 	strdeq	r8, [r0], -ip
    8764:	0000880c 	andeq	r8, r0, ip, lsl #16
    8768:	00008820 	andeq	r8, r0, r0, lsr #16
    876c:	00008828 	andeq	r8, r0, r8, lsr #16
    8770:	00008838 	andeq	r8, r0, r8, lsr r8
    8774:	00008858 	andeq	r8, r0, r8, asr r8
    8778:	00008868 	andeq	r8, r0, r8, ror #16
    877c:	00008878 	andeq	r8, r0, r8, ror r8
    8780:	00008888 	andeq	r8, r0, r8, lsl #17
    8784:	00008894 	muleq	r0, r4, r8
    8788:	0000889c 	muleq	r0, ip, r8
    878c:	e5910000 	ldr	r0, [r1]
    8790:	eb000398 	bl	95f8 <syscall_sbrk>
    8794:	ea000043 	b	88a8 <swi_c_handler+0x17c>
    8798:	e5910000 	ldr	r0, [r1]
    879c:	e5911004 	ldr	r1, [r1, #4]
    87a0:	e59c2008 	ldr	r2, [ip, #8]
    87a4:	eb0001ab 	bl	8e58 <syscall_write>
    87a8:	ea00003e 	b	88a8 <swi_c_handler+0x17c>
    87ac:	e5910000 	ldr	r0, [r1]
    87b0:	eb0003a6 	bl	9650 <syscall_close>
    87b4:	ea00003b 	b	88a8 <swi_c_handler+0x17c>
    87b8:	e5910000 	ldr	r0, [r1]
    87bc:	e5911004 	ldr	r1, [r1, #4]
    87c0:	eb0003a4 	bl	9658 <syscall_fstat>
    87c4:	ea000037 	b	88a8 <swi_c_handler+0x17c>
    87c8:	e5910000 	ldr	r0, [r1]
    87cc:	eb0003a3 	bl	9660 <syscall_isatty>
    87d0:	ea000034 	b	88a8 <swi_c_handler+0x17c>
    87d4:	e5910000 	ldr	r0, [r1]
    87d8:	e5911004 	ldr	r1, [r1, #4]
    87dc:	e59c2008 	ldr	r2, [ip, #8]
    87e0:	eb0003a0 	bl	9668 <syscall_lseek>
    87e4:	ea00002f 	b	88a8 <swi_c_handler+0x17c>
    87e8:	e5910000 	ldr	r0, [r1]
    87ec:	e5911004 	ldr	r1, [r1, #4]
    87f0:	e59c2008 	ldr	r2, [ip, #8]
    87f4:	eb0001b8 	bl	8edc <syscall_read>
    87f8:	ea00002a 	b	88a8 <swi_c_handler+0x17c>
    87fc:	e5910000 	ldr	r0, [r1]
    8800:	eb00018c 	bl	8e38 <syscall_exit>
    8804:	e3a00000 	mov	r0, #0
    8808:	ea000026 	b	88a8 <swi_c_handler+0x17c>
    880c:	e5910000 	ldr	r0, [r1]
    8810:	e5d11004 	ldrb	r1, [r1, #4]
    8814:	e59c2008 	ldr	r2, [ip, #8]
    8818:	eb0001dd 	bl	8f94 <syscall_sample_adc_start>
    881c:	ea000021 	b	88a8 <swi_c_handler+0x17c>
    8820:	eb0001dd 	bl	8f9c <syscall_sample_adc_stop>
    8824:	ea00001f 	b	88a8 <swi_c_handler+0x17c>
    8828:	e5910000 	ldr	r0, [r1]
    882c:	e5911004 	ldr	r1, [r1, #4]
    8830:	eb0001db 	bl	8fa4 <syscall_thread_init>
    8834:	ea00001b 	b	88a8 <swi_c_handler+0x17c>
    8838:	e5910000 	ldr	r0, [r1]
    883c:	e5911004 	ldr	r1, [r1, #4]
    8840:	e59c2008 	ldr	r2, [ip, #8]
    8844:	e59c300c 	ldr	r3, [ip, #12]
    8848:	e59cc030 	ldr	ip, [ip, #48]	; 0x30
    884c:	e58dc000 	str	ip, [sp]
    8850:	eb0001f9 	bl	903c <syscall_thread_create>
    8854:	ea000013 	b	88a8 <swi_c_handler+0x17c>
    8858:	e5910000 	ldr	r0, [r1]
    885c:	e5911004 	ldr	r1, [r1, #4]
    8860:	eb000226 	bl	9100 <syscall_mutex_init>
    8864:	ea00000f 	b	88a8 <swi_c_handler+0x17c>
    8868:	e5910000 	ldr	r0, [r1]
    886c:	eb000231 	bl	9138 <syscall_mutex_lock>
    8870:	e3a00000 	mov	r0, #0
    8874:	ea00000b 	b	88a8 <swi_c_handler+0x17c>
    8878:	e5910000 	ldr	r0, [r1]
    887c:	eb000269 	bl	9228 <syscall_mutex_unlock>
    8880:	e3a00000 	mov	r0, #0
    8884:	ea000007 	b	88a8 <swi_c_handler+0x17c>
    8888:	eb000307 	bl	94ac <syscall_wait_until_next_period>
    888c:	e3a00000 	mov	r0, #0
    8890:	ea000004 	b	88a8 <swi_c_handler+0x17c>
    8894:	eb000323 	bl	9528 <syscall_get_time>
    8898:	ea000002 	b	88a8 <swi_c_handler+0x17c>
    889c:	eb000325 	bl	9538 <syscall_scheduler_start>
    88a0:	ea000000 	b	88a8 <swi_c_handler+0x17c>
    88a4:	e3a00000 	mov	r0, #0
    88a8:	e28dd00c 	add	sp, sp, #12
    88ac:	e49df004 	pop	{pc}		; (ldr pc, [sp], #4)

000088b0 <printnumk>:
    88b0:	e92d47f0 	push	{r4, r5, r6, r7, r8, r9, sl, lr}
    88b4:	e24dd008 	sub	sp, sp, #8
    88b8:	e1a06002 	mov	r6, r2
    88bc:	e1a07003 	mov	r7, r3
    88c0:	e3500008 	cmp	r0, #8
    88c4:	0a000004 	beq	88dc <printnumk+0x2c>
    88c8:	e30b8028 	movw	r8, #45096	; 0xb028
    88cc:	e3408000 	movt	r8, #0
    88d0:	e3500010 	cmp	r0, #16
    88d4:	13a08000 	movne	r8, #0
    88d8:	ea000001 	b	88e4 <printnumk+0x34>
    88dc:	e30b8024 	movw	r8, #45092	; 0xb024
    88e0:	e3408000 	movt	r8, #0
    88e4:	e28d4007 	add	r4, sp, #7
    88e8:	e1a05000 	mov	r5, r0
    88ec:	e3a09000 	mov	r9, #0
    88f0:	e30ba000 	movw	sl, #45056	; 0xb000
    88f4:	e340a000 	movt	sl, #0
    88f8:	e1a00006 	mov	r0, r6
    88fc:	e1a01007 	mov	r1, r7
    8900:	e1a02005 	mov	r2, r5
    8904:	e1a03009 	mov	r3, r9
    8908:	eb000600 	bl	a110 <__aeabi_uldivmod>
    890c:	e7da3002 	ldrb	r3, [sl, r2]
    8910:	e4443001 	strb	r3, [r4], #-1
    8914:	e1a00006 	mov	r0, r6
    8918:	e1a01007 	mov	r1, r7
    891c:	e1a02005 	mov	r2, r5
    8920:	e1a03009 	mov	r3, r9
    8924:	eb0005f9 	bl	a110 <__aeabi_uldivmod>
    8928:	e1a06000 	mov	r6, r0
    892c:	e1a07001 	mov	r7, r1
    8930:	e1963007 	orrs	r3, r6, r7
    8934:	1affffef 	bne	88f8 <printnumk+0x48>
    8938:	e3580000 	cmp	r8, #0
    893c:	0a000002 	beq	894c <printnumk+0x9c>
    8940:	e5d80000 	ldrb	r0, [r8]
    8944:	e3500000 	cmp	r0, #0
    8948:	1a000004 	bne	8960 <printnumk+0xb0>
    894c:	e2844001 	add	r4, r4, #1
    8950:	e28d3008 	add	r3, sp, #8
    8954:	e1540003 	cmp	r4, r3
    8958:	1a000005 	bne	8974 <printnumk+0xc4>
    895c:	ea000009 	b	8988 <printnumk+0xd8>
    8960:	eb000099 	bl	8bcc <uart_put_byte>
    8964:	e5f80001 	ldrb	r0, [r8, #1]!
    8968:	e3500000 	cmp	r0, #0
    896c:	1afffffb 	bne	8960 <printnumk+0xb0>
    8970:	eafffff5 	b	894c <printnumk+0x9c>
    8974:	e4d40001 	ldrb	r0, [r4], #1
    8978:	eb000093 	bl	8bcc <uart_put_byte>
    897c:	e28d3008 	add	r3, sp, #8
    8980:	e1540003 	cmp	r4, r3
    8984:	1afffffa 	bne	8974 <printnumk+0xc4>
    8988:	e28dd008 	add	sp, sp, #8
    898c:	e8bd87f0 	pop	{r4, r5, r6, r7, r8, r9, sl, pc}

00008990 <printk>:
    8990:	e92d000f 	push	{r0, r1, r2, r3}
    8994:	e92d41f0 	push	{r4, r5, r6, r7, r8, lr}
    8998:	e24dd008 	sub	sp, sp, #8
    899c:	e59d4020 	ldr	r4, [sp, #32]
    89a0:	e28d3024 	add	r3, sp, #36	; 0x24
    89a4:	e58d3004 	str	r3, [sp, #4]
    89a8:	e3a06000 	mov	r6, #0
    89ac:	e3a08008 	mov	r8, #8
    89b0:	e3a07010 	mov	r7, #16
    89b4:	ea00005c 	b	8b2c <printk+0x19c>
    89b8:	e3500025 	cmp	r0, #37	; 0x25
    89bc:	0a000002 	beq	89cc <printk+0x3c>
    89c0:	e2844001 	add	r4, r4, #1
    89c4:	eb000080 	bl	8bcc <uart_put_byte>
    89c8:	ea000057 	b	8b2c <printk+0x19c>
    89cc:	e5d43001 	ldrb	r3, [r4, #1]
    89d0:	e353006f 	cmp	r3, #111	; 0x6f
    89d4:	0a00002c 	beq	8a8c <printk+0xfc>
    89d8:	8a000006 	bhi	89f8 <printk+0x68>
    89dc:	e3530063 	cmp	r3, #99	; 0x63
    89e0:	0a000045 	beq	8afc <printk+0x16c>
    89e4:	e3530064 	cmp	r3, #100	; 0x64
    89e8:	0a00000d 	beq	8a24 <printk+0x94>
    89ec:	e3530025 	cmp	r3, #37	; 0x25
    89f0:	1a00004a 	bne	8b20 <printk+0x190>
    89f4:	ea000046 	b	8b14 <printk+0x184>
    89f8:	e3530073 	cmp	r3, #115	; 0x73
    89fc:	0a000032 	beq	8acc <printk+0x13c>
    8a00:	8a000002 	bhi	8a10 <printk+0x80>
    8a04:	e3530070 	cmp	r3, #112	; 0x70
    8a08:	0a000027 	beq	8aac <printk+0x11c>
    8a0c:	ea000043 	b	8b20 <printk+0x190>
    8a10:	e3530075 	cmp	r3, #117	; 0x75
    8a14:	0a000014 	beq	8a6c <printk+0xdc>
    8a18:	e3530078 	cmp	r3, #120	; 0x78
    8a1c:	0a000022 	beq	8aac <printk+0x11c>
    8a20:	ea00003e 	b	8b20 <printk+0x190>
    8a24:	e59d3004 	ldr	r3, [sp, #4]
    8a28:	e2832004 	add	r2, r3, #4
    8a2c:	e58d2004 	str	r2, [sp, #4]
    8a30:	e5935000 	ldr	r5, [r3]
    8a34:	e3550000 	cmp	r5, #0
    8a38:	aa000006 	bge	8a58 <printk+0xc8>
    8a3c:	e3a0002d 	mov	r0, #45	; 0x2d
    8a40:	eb000061 	bl	8bcc <uart_put_byte>
    8a44:	e2652000 	rsb	r2, r5, #0
    8a48:	e3a0000a 	mov	r0, #10
    8a4c:	e1a03fc2 	asr	r3, r2, #31
    8a50:	ebffff96 	bl	88b0 <printnumk>
    8a54:	ea000033 	b	8b28 <printk+0x198>
    8a58:	e3a0000a 	mov	r0, #10
    8a5c:	e1a02005 	mov	r2, r5
    8a60:	e1a03fc5 	asr	r3, r5, #31
    8a64:	ebffff91 	bl	88b0 <printnumk>
    8a68:	ea00002e 	b	8b28 <printk+0x198>
    8a6c:	e59d3004 	ldr	r3, [sp, #4]
    8a70:	e2832004 	add	r2, r3, #4
    8a74:	e58d2004 	str	r2, [sp, #4]
    8a78:	e3a0000a 	mov	r0, #10
    8a7c:	e5932000 	ldr	r2, [r3]
    8a80:	e1a03006 	mov	r3, r6
    8a84:	ebffff89 	bl	88b0 <printnumk>
    8a88:	ea000026 	b	8b28 <printk+0x198>
    8a8c:	e59d3004 	ldr	r3, [sp, #4]
    8a90:	e2832004 	add	r2, r3, #4
    8a94:	e58d2004 	str	r2, [sp, #4]
    8a98:	e1a00008 	mov	r0, r8
    8a9c:	e5932000 	ldr	r2, [r3]
    8aa0:	e1a03006 	mov	r3, r6
    8aa4:	ebffff81 	bl	88b0 <printnumk>
    8aa8:	ea00001e 	b	8b28 <printk+0x198>
    8aac:	e59d3004 	ldr	r3, [sp, #4]
    8ab0:	e2832004 	add	r2, r3, #4
    8ab4:	e58d2004 	str	r2, [sp, #4]
    8ab8:	e1a00007 	mov	r0, r7
    8abc:	e5932000 	ldr	r2, [r3]
    8ac0:	e1a03006 	mov	r3, r6
    8ac4:	ebffff79 	bl	88b0 <printnumk>
    8ac8:	ea000016 	b	8b28 <printk+0x198>
    8acc:	e59d3004 	ldr	r3, [sp, #4]
    8ad0:	e2832004 	add	r2, r3, #4
    8ad4:	e58d2004 	str	r2, [sp, #4]
    8ad8:	e5935000 	ldr	r5, [r3]
    8adc:	e5d50000 	ldrb	r0, [r5]
    8ae0:	e3500000 	cmp	r0, #0
    8ae4:	0a00000f 	beq	8b28 <printk+0x198>
    8ae8:	eb000037 	bl	8bcc <uart_put_byte>
    8aec:	e5f50001 	ldrb	r0, [r5, #1]!
    8af0:	e3500000 	cmp	r0, #0
    8af4:	1afffffb 	bne	8ae8 <printk+0x158>
    8af8:	ea00000a 	b	8b28 <printk+0x198>
    8afc:	e59d3004 	ldr	r3, [sp, #4]
    8b00:	e2832004 	add	r2, r3, #4
    8b04:	e58d2004 	str	r2, [sp, #4]
    8b08:	e5d30000 	ldrb	r0, [r3]
    8b0c:	eb00002e 	bl	8bcc <uart_put_byte>
    8b10:	ea000004 	b	8b28 <printk+0x198>
    8b14:	e3a00025 	mov	r0, #37	; 0x25
    8b18:	eb00002b 	bl	8bcc <uart_put_byte>
    8b1c:	ea000001 	b	8b28 <printk+0x198>
    8b20:	e3e00000 	mvn	r0, #0
    8b24:	ea000003 	b	8b38 <printk+0x1a8>
    8b28:	e2844002 	add	r4, r4, #2
    8b2c:	e5d40000 	ldrb	r0, [r4]
    8b30:	e3500000 	cmp	r0, #0
    8b34:	1affff9f 	bne	89b8 <printk+0x28>
    8b38:	e28dd008 	add	sp, sp, #8
    8b3c:	e8bd41f0 	pop	{r4, r5, r6, r7, r8, lr}
    8b40:	e28dd010 	add	sp, sp, #16
    8b44:	e12fff1e 	bx	lr

00008b48 <uart_init>:
    8b48:	e92d4010 	push	{r4, lr}
    8b4c:	e3a03a05 	mov	r3, #20480	; 0x5000
    8b50:	e3433f21 	movt	r3, #16161	; 0x3f21
    8b54:	e5932004 	ldr	r2, [r3, #4]
    8b58:	e3822001 	orr	r2, r2, #1
    8b5c:	e5832004 	str	r2, [r3, #4]
    8b60:	e300210e 	movw	r2, #270	; 0x10e
    8b64:	e5832068 	str	r2, [r3, #104]	; 0x68
    8b68:	e3a04000 	mov	r4, #0
    8b6c:	e5834044 	str	r4, [r3, #68]	; 0x44
    8b70:	e593204c 	ldr	r2, [r3, #76]	; 0x4c
    8b74:	e3822003 	orr	r2, r2, #3
    8b78:	e583204c 	str	r2, [r3, #76]	; 0x4c
    8b7c:	e3a02006 	mov	r2, #6
    8b80:	e5832048 	str	r2, [r3, #72]	; 0x48
    8b84:	e3a0000f 	mov	r0, #15
    8b88:	e3a01002 	mov	r1, #2
    8b8c:	ebfffd48 	bl	80b4 <gpio_config>
    8b90:	e3a0000e 	mov	r0, #14
    8b94:	e3a01002 	mov	r1, #2
    8b98:	ebfffd45 	bl	80b4 <gpio_config>
    8b9c:	e3a0000f 	mov	r0, #15
    8ba0:	e1a01004 	mov	r1, r4
    8ba4:	ebfffd79 	bl	8190 <gpio_set_pull>
    8ba8:	e3a0000e 	mov	r0, #14
    8bac:	e1a01004 	mov	r1, r4
    8bb0:	ebfffd76 	bl	8190 <gpio_set_pull>
    8bb4:	e8bd8010 	pop	{r4, pc}

00008bb8 <uart_close>:
    8bb8:	e3a03a05 	mov	r3, #20480	; 0x5000
    8bbc:	e3433f21 	movt	r3, #16161	; 0x3f21
    8bc0:	e3a02000 	mov	r2, #0
    8bc4:	e5832004 	str	r2, [r3, #4]
    8bc8:	e12fff1e 	bx	lr

00008bcc <uart_put_byte>:
    8bcc:	e3a02a05 	mov	r2, #20480	; 0x5000
    8bd0:	e3432f21 	movt	r2, #16161	; 0x3f21
    8bd4:	e5923064 	ldr	r3, [r2, #100]	; 0x64
    8bd8:	e3130002 	tst	r3, #2
    8bdc:	0afffffc 	beq	8bd4 <uart_put_byte+0x8>
    8be0:	e3a03a05 	mov	r3, #20480	; 0x5000
    8be4:	e3433f21 	movt	r3, #16161	; 0x3f21
    8be8:	e5830040 	str	r0, [r3, #64]	; 0x40
    8bec:	e12fff1e 	bx	lr

00008bf0 <uart_get_byte>:
    8bf0:	e3a02a05 	mov	r2, #20480	; 0x5000
    8bf4:	e3432f21 	movt	r2, #16161	; 0x3f21
    8bf8:	e5923054 	ldr	r3, [r2, #84]	; 0x54
    8bfc:	e3130001 	tst	r3, #1
    8c00:	0afffffc 	beq	8bf8 <uart_get_byte+0x8>
    8c04:	e3a03a05 	mov	r3, #20480	; 0x5000
    8c08:	e3433f21 	movt	r3, #16161	; 0x3f21
    8c0c:	e5930040 	ldr	r0, [r3, #64]	; 0x40
    8c10:	e6ef0070 	uxtb	r0, r0
    8c14:	e12fff1e 	bx	lr

00008c18 <spi_master_init>:
    8c18:	e92d4038 	push	{r3, r4, r5, lr}
    8c1c:	e1a05000 	mov	r5, r0
    8c20:	e1a04001 	mov	r4, r1
    8c24:	e3a00007 	mov	r0, #7
    8c28:	e3a01004 	mov	r1, #4
    8c2c:	ebfffd20 	bl	80b4 <gpio_config>
    8c30:	e3a00008 	mov	r0, #8
    8c34:	e3a01004 	mov	r1, #4
    8c38:	ebfffd1d 	bl	80b4 <gpio_config>
    8c3c:	e3a00009 	mov	r0, #9
    8c40:	e3a01004 	mov	r1, #4
    8c44:	ebfffd1a 	bl	80b4 <gpio_config>
    8c48:	e3a0000a 	mov	r0, #10
    8c4c:	e3a01004 	mov	r1, #4
    8c50:	ebfffd17 	bl	80b4 <gpio_config>
    8c54:	e3a0000b 	mov	r0, #11
    8c58:	e3a01004 	mov	r1, #4
    8c5c:	ebfffd14 	bl	80b4 <gpio_config>
    8c60:	e3a03901 	mov	r3, #16384	; 0x4000
    8c64:	e3433f20 	movt	r3, #16160	; 0x3f20
    8c68:	e3a02000 	mov	r2, #0
    8c6c:	e5832000 	str	r2, [r3]
    8c70:	e3a02030 	mov	r2, #48	; 0x30
    8c74:	e5832000 	str	r2, [r3]
    8c78:	e5930000 	ldr	r0, [r3]
    8c7c:	e1800105 	orr	r0, r0, r5, lsl #2
    8c80:	e5830000 	str	r0, [r3]
    8c84:	e5834008 	str	r4, [r3, #8]
    8c88:	e8bd8038 	pop	{r3, r4, r5, pc}

00008c8c <spi_master_chip_sel>:
    8c8c:	e3a03901 	mov	r3, #16384	; 0x4000
    8c90:	e3433f20 	movt	r3, #16160	; 0x3f20
    8c94:	e5932000 	ldr	r2, [r3]
    8c98:	e1821301 	orr	r1, r2, r1, lsl #6
    8c9c:	e5831000 	str	r1, [r3]
    8ca0:	e5932000 	ldr	r2, [r3]
    8ca4:	e1800002 	orr	r0, r0, r2
    8ca8:	e5830000 	str	r0, [r3]
    8cac:	e12fff1e 	bx	lr

00008cb0 <spi_master_transfer_start>:
    8cb0:	e3a03901 	mov	r3, #16384	; 0x4000
    8cb4:	e3433f20 	movt	r3, #16160	; 0x3f20
    8cb8:	e5932000 	ldr	r2, [r3]
    8cbc:	e3822080 	orr	r2, r2, #128	; 0x80
    8cc0:	e5832000 	str	r2, [r3]
    8cc4:	e12fff1e 	bx	lr

00008cc8 <spi_master_transfer_end>:
    8cc8:	e3a03901 	mov	r3, #16384	; 0x4000
    8ccc:	e3433f20 	movt	r3, #16160	; 0x3f20
    8cd0:	e5932000 	ldr	r2, [r3]
    8cd4:	e3c22080 	bic	r2, r2, #128	; 0x80
    8cd8:	e5832000 	str	r2, [r3]
    8cdc:	e12fff1e 	bx	lr

00008ce0 <spi_master_transfer>:
    8ce0:	e3a02901 	mov	r2, #16384	; 0x4000
    8ce4:	e3432f20 	movt	r2, #16160	; 0x3f20
    8ce8:	e5923000 	ldr	r3, [r2]
    8cec:	e3130701 	tst	r3, #262144	; 0x40000
    8cf0:	0afffffc 	beq	8ce8 <spi_master_transfer+0x8>
    8cf4:	e3a03901 	mov	r3, #16384	; 0x4000
    8cf8:	e3433f20 	movt	r3, #16160	; 0x3f20
    8cfc:	e5932004 	ldr	r2, [r3, #4]
    8d00:	e1800002 	orr	r0, r0, r2
    8d04:	e5830004 	str	r0, [r3, #4]
    8d08:	e3a02901 	mov	r2, #16384	; 0x4000
    8d0c:	e3432f20 	movt	r2, #16160	; 0x3f20
    8d10:	e5923000 	ldr	r3, [r2]
    8d14:	e3130801 	tst	r3, #65536	; 0x10000
    8d18:	0afffffc 	beq	8d10 <spi_master_transfer+0x30>
    8d1c:	e3a03901 	mov	r3, #16384	; 0x4000
    8d20:	e3433f20 	movt	r3, #16160	; 0x3f20
    8d24:	e5930004 	ldr	r0, [r3, #4]
    8d28:	e6ef0070 	uxtb	r0, r0
    8d2c:	e12fff1e 	bx	lr

00008d30 <timer_start>:
    8d30:	e92d4010 	push	{r4, lr}
    8d34:	e1a01000 	mov	r1, r0
    8d38:	e3a04a0b 	mov	r4, #45056	; 0xb000
    8d3c:	e3434f00 	movt	r4, #16128	; 0x3f00
    8d40:	e3a03001 	mov	r3, #1
    8d44:	e5843218 	str	r3, [r4, #536]	; 0x218
    8d48:	e5943408 	ldr	r3, [r4, #1032]	; 0x408
    8d4c:	e3c3300c 	bic	r3, r3, #12
    8d50:	e5843408 	str	r3, [r4, #1032]	; 0x408
    8d54:	e5943408 	ldr	r3, [r4, #1032]	; 0x408
    8d58:	e38330a2 	orr	r3, r3, #162	; 0xa2
    8d5c:	e5843408 	str	r3, [r4, #1032]	; 0x408
    8d60:	e3040240 	movw	r0, #16960	; 0x4240
    8d64:	e340000f 	movt	r0, #15
    8d68:	eb0002e7 	bl	990c <__aeabi_idiv>
    8d6c:	e5840400 	str	r0, [r4, #1024]	; 0x400
    8d70:	e8bd8010 	pop	{r4, pc}

00008d74 <timer_stop>:
    8d74:	e3a03a0b 	mov	r3, #45056	; 0xb000
    8d78:	e3433f00 	movt	r3, #16128	; 0x3f00
    8d7c:	e3a02001 	mov	r2, #1
    8d80:	e5832224 	str	r2, [r3, #548]	; 0x224
    8d84:	e5932408 	ldr	r2, [r3, #1032]	; 0x408
    8d88:	e3c220ff 	bic	r2, r2, #255	; 0xff
    8d8c:	e5832408 	str	r2, [r3, #1032]	; 0x408
    8d90:	e12fff1e 	bx	lr

00008d94 <timer_is_pending>:
    8d94:	e3a03a0b 	mov	r3, #45056	; 0xb000
    8d98:	e3433f00 	movt	r3, #16128	; 0x3f00
    8d9c:	e5930410 	ldr	r0, [r3, #1040]	; 0x410
    8da0:	e2000001 	and	r0, r0, #1
    8da4:	e12fff1e 	bx	lr

00008da8 <timer_clear_pending>:
    8da8:	e3a03a0b 	mov	r3, #45056	; 0xb000
    8dac:	e3433f00 	movt	r3, #16128	; 0x3f00
    8db0:	e3a02001 	mov	r2, #1
    8db4:	e583240c 	str	r2, [r3, #1036]	; 0x40c
    8db8:	e12fff1e 	bx	lr

00008dbc <adc_init>:
    8dbc:	e92d4008 	push	{r3, lr}
    8dc0:	e3a00000 	mov	r0, #0
    8dc4:	e3a01c02 	mov	r1, #512	; 0x200
    8dc8:	ebffff92 	bl	8c18 <spi_master_init>
    8dcc:	e3a00000 	mov	r0, #0
    8dd0:	e1a01000 	mov	r1, r0
    8dd4:	ebffffac 	bl	8c8c <spi_master_chip_sel>
    8dd8:	e8bd8008 	pop	{r3, pc}

00008ddc <adc_read>:
    8ddc:	e92d4010 	push	{r4, lr}
    8de0:	e3500000 	cmp	r0, #0
    8de4:	03a04068 	moveq	r4, #104	; 0x68
    8de8:	0a000003 	beq	8dfc <adc_read+0x20>
    8dec:	e3500001 	cmp	r0, #1
    8df0:	13a04000 	movne	r4, #0
    8df4:	03a04078 	moveq	r4, #120	; 0x78
    8df8:	eaffffff 	b	8dfc <adc_read+0x20>
    8dfc:	ebffffab 	bl	8cb0 <spi_master_transfer_start>
    8e00:	e1a00004 	mov	r0, r4
    8e04:	ebffffb5 	bl	8ce0 <spi_master_transfer>
    8e08:	e1a00400 	lsl	r0, r0, #8
    8e0c:	e6ff4070 	uxth	r4, r0
    8e10:	e3a00000 	mov	r0, #0
    8e14:	ebffffb1 	bl	8ce0 <spi_master_transfer>
    8e18:	e1840000 	orr	r0, r4, r0
    8e1c:	e6ff4070 	uxth	r4, r0
    8e20:	ebffffa8 	bl	8cc8 <spi_master_transfer_end>
    8e24:	e1a00004 	mov	r0, r4
    8e28:	e8bd8010 	pop	{r4, pc}

00008e2c <min>:
    8e2c:	e1500001 	cmp	r0, r1
    8e30:	a1a00001 	movge	r0, r1
    8e34:	e12fff1e 	bx	lr

00008e38 <syscall_exit>:
    8e38:	e92d4008 	push	{r3, lr}
    8e3c:	e1a01000 	mov	r1, r0
    8e40:	e30b002c 	movw	r0, #45100	; 0xb02c
    8e44:	e3400000 	movt	r0, #0
    8e48:	ebfffed0 	bl	8990 <printk>
    8e4c:	eb00020e 	bl	968c <disable_interrupts>
    8e50:	ebfffc79 	bl	803c <hang>
    8e54:	e8bd8008 	pop	{r3, pc}

00008e58 <syscall_write>:
    8e58:	e3500001 	cmp	r0, #1
    8e5c:	1a00001c 	bne	8ed4 <syscall_write+0x7c>
    8e60:	e3520000 	cmp	r2, #0
    8e64:	da000015 	ble	8ec0 <syscall_write+0x68>
    8e68:	e5d10000 	ldrb	r0, [r1]
    8e6c:	e3500000 	cmp	r0, #0
    8e70:	1a000009 	bne	8e9c <syscall_write+0x44>
    8e74:	ea000003 	b	8e88 <syscall_write+0x30>
    8e78:	e4d40001 	ldrb	r0, [r4], #1
    8e7c:	e3500000 	cmp	r0, #0
    8e80:	1a000009 	bne	8eac <syscall_write+0x54>
    8e84:	ea000002 	b	8e94 <syscall_write+0x3c>
    8e88:	e3a03000 	mov	r3, #0
    8e8c:	e1a00003 	mov	r0, r3
    8e90:	e12fff1e 	bx	lr
    8e94:	e1a00003 	mov	r0, r3
    8e98:	e8bd8070 	pop	{r4, r5, r6, pc}
    8e9c:	e92d4070 	push	{r4, r5, r6, lr}
    8ea0:	e1a06001 	mov	r6, r1
    8ea4:	e2814001 	add	r4, r1, #1
    8ea8:	e0815002 	add	r5, r1, r2
    8eac:	ebffff46 	bl	8bcc <uart_put_byte>
    8eb0:	e0663004 	rsb	r3, r6, r4
    8eb4:	e1540005 	cmp	r4, r5
    8eb8:	1affffee 	bne	8e78 <syscall_write+0x20>
    8ebc:	ea000002 	b	8ecc <syscall_write+0x74>
    8ec0:	e3a03000 	mov	r3, #0
    8ec4:	e1a00003 	mov	r0, r3
    8ec8:	e12fff1e 	bx	lr
    8ecc:	e1a00003 	mov	r0, r3
    8ed0:	e8bd8070 	pop	{r4, r5, r6, pc}
    8ed4:	e3e00000 	mvn	r0, #0
    8ed8:	e12fff1e 	bx	lr

00008edc <syscall_read>:
    8edc:	e3500000 	cmp	r0, #0
    8ee0:	1a000027 	bne	8f84 <syscall_read+0xa8>
    8ee4:	e92d41f0 	push	{r4, r5, r6, r7, r8, lr}
    8ee8:	e3520000 	cmp	r2, #0
    8eec:	da000021 	ble	8f78 <syscall_read+0x9c>
    8ef0:	e1a05002 	mov	r5, r2
    8ef4:	e1a06001 	mov	r6, r1
    8ef8:	e3a04000 	mov	r4, #0
    8efc:	e1a08004 	mov	r8, r4
    8f00:	e30b7040 	movw	r7, #45120	; 0xb040
    8f04:	e3407000 	movt	r7, #0
    8f08:	ebffff38 	bl	8bf0 <uart_get_byte>
    8f0c:	e3500004 	cmp	r0, #4
    8f10:	0a00001d 	beq	8f8c <syscall_read+0xb0>
    8f14:	e3500008 	cmp	r0, #8
    8f18:	1350007f 	cmpne	r0, #127	; 0x7f
    8f1c:	1a000006 	bne	8f3c <syscall_read+0x60>
    8f20:	e3540000 	cmp	r4, #0
    8f24:	da000010 	ble	8f6c <syscall_read+0x90>
    8f28:	e2444001 	sub	r4, r4, #1
    8f2c:	e7c68004 	strb	r8, [r6, r4]
    8f30:	e1a00007 	mov	r0, r7
    8f34:	ebfffe95 	bl	8990 <printk>
    8f38:	ea00000b 	b	8f6c <syscall_read+0x90>
    8f3c:	e350000a 	cmp	r0, #10
    8f40:	1350000d 	cmpne	r0, #13
    8f44:	1a000005 	bne	8f60 <syscall_read+0x84>
    8f48:	e7c60004 	strb	r0, [r6, r4]
    8f4c:	e30b0088 	movw	r0, #45192	; 0xb088
    8f50:	e3400000 	movt	r0, #0
    8f54:	ebfffe8d 	bl	8990 <printk>
    8f58:	e2840001 	add	r0, r4, #1
    8f5c:	e8bd81f0 	pop	{r4, r5, r6, r7, r8, pc}
    8f60:	e7c60004 	strb	r0, [r6, r4]
    8f64:	ebffff18 	bl	8bcc <uart_put_byte>
    8f68:	e2844001 	add	r4, r4, #1
    8f6c:	e1550004 	cmp	r5, r4
    8f70:	caffffe4 	bgt	8f08 <syscall_read+0x2c>
    8f74:	ea000000 	b	8f7c <syscall_read+0xa0>
    8f78:	e3a04000 	mov	r4, #0
    8f7c:	e1a00004 	mov	r0, r4
    8f80:	e8bd81f0 	pop	{r4, r5, r6, r7, r8, pc}
    8f84:	e3e00000 	mvn	r0, #0
    8f88:	e12fff1e 	bx	lr
    8f8c:	e1a00004 	mov	r0, r4
    8f90:	e8bd81f0 	pop	{r4, r5, r6, r7, r8, pc}

00008f94 <syscall_sample_adc_start>:
    8f94:	e3a00001 	mov	r0, #1
    8f98:	e12fff1e 	bx	lr

00008f9c <syscall_sample_adc_stop>:
    8f9c:	e3a00001 	mov	r0, #1
    8fa0:	e12fff1e 	bx	lr

00008fa4 <syscall_thread_init>:
    8fa4:	e3510000 	cmp	r1, #0
    8fa8:	13500000 	cmpne	r0, #0
    8fac:	0a00001f 	beq	9030 <syscall_thread_init+0x8c>
    8fb0:	e52de004 	push	{lr}		; (str lr, [sp, #-4]!)
    8fb4:	e1a0e001 	mov	lr, r1
    8fb8:	e30d2004 	movw	r2, #53252	; 0xd004
    8fbc:	e3402000 	movt	r2, #0
    8fc0:	e2823a1f 	add	r3, r2, #126976	; 0x1f000
    8fc4:	e5831e44 	str	r1, [r3, #3652]	; 0xe44
    8fc8:	e5830e0c 	str	r0, [r3, #3596]	; 0xe0c
    8fcc:	e3a00000 	mov	r0, #0
    8fd0:	e5830e5c 	str	r0, [r3, #3676]	; 0xe5c
    8fd4:	e5830e60 	str	r0, [r3, #3680]	; 0xe60
    8fd8:	e3a01010 	mov	r1, #16
    8fdc:	e5831e58 	str	r1, [r3, #3672]	; 0xe58
    8fe0:	e3a0101f 	mov	r1, #31
    8fe4:	e5831e68 	str	r1, [r3, #3688]	; 0xe68
    8fe8:	e5831e6c 	str	r1, [r3, #3692]	; 0xe6c
    8fec:	e5830e70 	str	r0, [r3, #3696]	; 0xe70
    8ff0:	e3a01002 	mov	r1, #2
    8ff4:	e5c31e74 	strb	r1, [r3, #3700]	; 0xe74
    8ff8:	e59f1038 	ldr	r1, [pc, #56]	; 9038 <syscall_thread_init+0x94>
    8ffc:	e5831e50 	str	r1, [r3, #3664]	; 0xe50
    9000:	e2822802 	add	r2, r2, #131072	; 0x20000
    9004:	e3a03001 	mov	r3, #1
    9008:	e5823e78 	str	r3, [r2, #3704]	; 0xe78
    900c:	e5820e7c 	str	r0, [r2, #3708]	; 0xe7c
    9010:	e30d3f08 	movw	r3, #57096	; 0xdf08
    9014:	e3403002 	movt	r3, #2
    9018:	e3a02102 	mov	r2, #-2147483648	; 0x80000000
    901c:	e5832000 	str	r2, [r3]
    9020:	e30d3f0c 	movw	r3, #57100	; 0xdf0c
    9024:	e3403002 	movt	r3, #2
    9028:	e5830000 	str	r0, [r3]
    902c:	e49df004 	pop	{pc}		; (ldr pc, [sp], #4)
    9030:	e3e00000 	mvn	r0, #0
    9034:	e12fff1e 	bx	lr
    9038:	0002de78 	andeq	sp, r2, r8, ror lr

0000903c <syscall_thread_create>:
    903c:	e92d4030 	push	{r4, r5, lr}
    9040:	e1a05001 	mov	r5, r1
    9044:	e352001f 	cmp	r2, #31
    9048:	93a0c000 	movls	ip, #0
    904c:	83a0c001 	movhi	ip, #1
    9050:	e3510000 	cmp	r1, #0
    9054:	11a0100c 	movne	r1, ip
    9058:	038c1001 	orreq	r1, ip, #1
    905c:	e1a04000 	mov	r4, r0
    9060:	e3500000 	cmp	r0, #0
    9064:	11a00001 	movne	r0, r1
    9068:	03810001 	orreq	r0, r1, #1
    906c:	e3500000 	cmp	r0, #0
    9070:	1a000020 	bne	90f8 <syscall_thread_create+0xbc>
    9074:	e30dc004 	movw	ip, #53252	; 0xd004
    9078:	e340c000 	movt	ip, #0
    907c:	e301e074 	movw	lr, #4212	; 0x1074
    9080:	e00e029e 	mul	lr, lr, r2
    9084:	e08c100e 	add	r1, ip, lr
    9088:	e3a00010 	mov	r0, #16
    908c:	e581004c 	str	r0, [r1, #76]	; 0x4c
    9090:	e5815038 	str	r5, [r1, #56]	; 0x38
    9094:	e78c400e 	str	r4, [ip, lr]
    9098:	e5813050 	str	r3, [r1, #80]	; 0x50
    909c:	e59d300c 	ldr	r3, [sp, #12]
    90a0:	e5813054 	str	r3, [r1, #84]	; 0x54
    90a4:	e3a00000 	mov	r0, #0
    90a8:	e5810058 	str	r0, [r1, #88]	; 0x58
    90ac:	e581205c 	str	r2, [r1, #92]	; 0x5c
    90b0:	e5812060 	str	r2, [r1, #96]	; 0x60
    90b4:	e5810064 	str	r0, [r1, #100]	; 0x64
    90b8:	e3a03002 	mov	r3, #2
    90bc:	e5c13068 	strb	r3, [r1, #104]	; 0x68
    90c0:	e281cd41 	add	ip, r1, #4160	; 0x1040
    90c4:	e28cc028 	add	ip, ip, #40	; 0x28
    90c8:	e581c044 	str	ip, [r1, #68]	; 0x44
    90cc:	e3013070 	movw	r3, #4208	; 0x1070
    90d0:	e7810003 	str	r0, [r1, r3]
    90d4:	e1a0100c 	mov	r1, ip
    90d8:	e3a0c001 	mov	ip, #1
    90dc:	e581c004 	str	ip, [r1, #4]
    90e0:	e30d3f08 	movw	r3, #57096	; 0xdf08
    90e4:	e3403002 	movt	r3, #2
    90e8:	e5931000 	ldr	r1, [r3]
    90ec:	e181221c 	orr	r2, r1, ip, lsl r2
    90f0:	e5832000 	str	r2, [r3]
    90f4:	e8bd8030 	pop	{r4, r5, pc}
    90f8:	e3e00000 	mvn	r0, #0
    90fc:	e8bd8030 	pop	{r4, r5, pc}

00009100 <syscall_mutex_init>:
    9100:	e1a02000 	mov	r2, r0
    9104:	e351001f 	cmp	r1, #31
    9108:	93a03000 	movls	r3, #0
    910c:	83a03001 	movhi	r3, #1
    9110:	e3500000 	cmp	r0, #0
    9114:	11a00003 	movne	r0, r3
    9118:	03830001 	orreq	r0, r3, #1
    911c:	e3500000 	cmp	r0, #0
    9120:	05821000 	streq	r1, [r2]
    9124:	03e03000 	mvneq	r3, #0
    9128:	05823004 	streq	r3, [r2, #4]
    912c:	05820008 	streq	r0, [r2, #8]
    9130:	13e00000 	mvnne	r0, #0
    9134:	e12fff1e 	bx	lr

00009138 <syscall_mutex_lock>:
    9138:	e92d4010 	push	{r4, lr}
    913c:	e1a04000 	mov	r4, r0
    9140:	eb000151 	bl	968c <disable_interrupts>
    9144:	e30d3e84 	movw	r3, #56964	; 0xde84
    9148:	e3403002 	movt	r3, #2
    914c:	e30c2000 	movw	r2, #49152	; 0xc000
    9150:	e3402000 	movt	r2, #0
    9154:	e5922000 	ldr	r2, [r2]
    9158:	e7933102 	ldr	r3, [r3, r2, lsl #2]
    915c:	e30d1004 	movw	r1, #53252	; 0xd004
    9160:	e3401000 	movt	r1, #0
    9164:	e3012074 	movw	r2, #4212	; 0x1074
    9168:	e0221392 	mla	r2, r2, r3, r1
    916c:	e5922060 	ldr	r2, [r2, #96]	; 0x60
    9170:	e5941000 	ldr	r1, [r4]
    9174:	e1510002 	cmp	r1, r2
    9178:	a1a01002 	movge	r1, r2
    917c:	e5942004 	ldr	r2, [r4, #4]
    9180:	e3720001 	cmn	r2, #1
    9184:	1afffffc 	bne	917c <syscall_mutex_lock+0x44>
    9188:	e30d0004 	movw	r0, #53252	; 0xd004
    918c:	e3400000 	movt	r0, #0
    9190:	e3012074 	movw	r2, #4212	; 0x1074
    9194:	e0220392 	mla	r2, r2, r3, r0
    9198:	e592005c 	ldr	r0, [r2, #92]	; 0x5c
    919c:	e5840004 	str	r0, [r4, #4]
    91a0:	e3010070 	movw	r0, #4208	; 0x1070
    91a4:	e7922000 	ldr	r2, [r2, r0]
    91a8:	e3520000 	cmp	r2, #0
    91ac:	e30d0004 	movw	r0, #53252	; 0xd004
    91b0:	e3400000 	movt	r0, #0
    91b4:	e3012074 	movw	r2, #4212	; 0x1074
    91b8:	e0220392 	mla	r2, r2, r3, r0
    91bc:	e3010070 	movw	r0, #4208	; 0x1070
    91c0:	07824000 	streq	r4, [r2, r0]
    91c4:	03a02000 	moveq	r2, #0
    91c8:	05842008 	streq	r2, [r4, #8]
    91cc:	1792c000 	ldrne	ip, [r2, r0]
    91d0:	1584c008 	strne	ip, [r4, #8]
    91d4:	17824000 	strne	r4, [r2, r0]
    91d8:	e30d2004 	movw	r2, #53252	; 0xd004
    91dc:	e3402000 	movt	r2, #0
    91e0:	e3010074 	movw	r0, #4212	; 0x1074
    91e4:	e0232390 	mla	r3, r0, r3, r2
    91e8:	e5932060 	ldr	r2, [r3, #96]	; 0x60
    91ec:	e30dcf08 	movw	ip, #57096	; 0xdf08
    91f0:	e340c002 	movt	ip, #2
    91f4:	e3a0e001 	mov	lr, #1
    91f8:	e59c0000 	ldr	r0, [ip]
    91fc:	e1c0221e 	bic	r2, r0, lr, lsl r2
    9200:	e182211e 	orr	r2, r2, lr, lsl r1
    9204:	e58c2000 	str	r2, [ip]
    9208:	e5831060 	str	r1, [r3, #96]	; 0x60
    920c:	e5942000 	ldr	r2, [r4]
    9210:	e593105c 	ldr	r1, [r3, #92]	; 0x5c
    9214:	e30d3e84 	movw	r3, #56964	; 0xde84
    9218:	e3403002 	movt	r3, #2
    921c:	e7831102 	str	r1, [r3, r2, lsl #2]
    9220:	eb00011e 	bl	96a0 <enable_interrupts>
    9224:	e8bd8010 	pop	{r4, pc}

00009228 <syscall_mutex_unlock>:
    9228:	e92d4038 	push	{r3, r4, r5, lr}
    922c:	e1a04000 	mov	r4, r0
    9230:	eb000115 	bl	968c <disable_interrupts>
    9234:	e30d3e84 	movw	r3, #56964	; 0xde84
    9238:	e3403002 	movt	r3, #2
    923c:	e30c2000 	movw	r2, #49152	; 0xc000
    9240:	e3402000 	movt	r2, #0
    9244:	e5922000 	ldr	r2, [r2]
    9248:	e7935102 	ldr	r5, [r3, r2, lsl #2]
    924c:	e3e03000 	mvn	r3, #0
    9250:	e5843004 	str	r3, [r4, #4]
    9254:	e30d2004 	movw	r2, #53252	; 0xd004
    9258:	e3402000 	movt	r2, #0
    925c:	e3013074 	movw	r3, #4212	; 0x1074
    9260:	e0232593 	mla	r3, r3, r5, r2
    9264:	e3012070 	movw	r2, #4208	; 0x1070
    9268:	e7933002 	ldr	r3, [r3, r2]
    926c:	e3530000 	cmp	r3, #0
    9270:	1a000004 	bne	9288 <syscall_mutex_unlock+0x60>
    9274:	e30b0044 	movw	r0, #45124	; 0xb044
    9278:	e3400000 	movt	r0, #0
    927c:	ebfffdc3 	bl	8990 <printk>
    9280:	e3a00001 	mov	r0, #1
    9284:	ebfffeeb 	bl	8e38 <syscall_exit>
    9288:	e30d2004 	movw	r2, #53252	; 0xd004
    928c:	e3402000 	movt	r2, #0
    9290:	e3013074 	movw	r3, #4212	; 0x1074
    9294:	e0232593 	mla	r3, r3, r5, r2
    9298:	e3012070 	movw	r2, #4208	; 0x1070
    929c:	e7933002 	ldr	r3, [r3, r2]
    92a0:	e1530004 	cmp	r3, r4
    92a4:	1a000007 	bne	92c8 <syscall_mutex_unlock+0xa0>
    92a8:	e5931008 	ldr	r1, [r3, #8]
    92ac:	e30d2004 	movw	r2, #53252	; 0xd004
    92b0:	e3402000 	movt	r2, #0
    92b4:	e3013074 	movw	r3, #4212	; 0x1074
    92b8:	e0232593 	mla	r3, r3, r5, r2
    92bc:	e3012070 	movw	r2, #4208	; 0x1070
    92c0:	e7831002 	str	r1, [r3, r2]
    92c4:	ea00001a 	b	9334 <syscall_mutex_unlock+0x10c>
    92c8:	e5933008 	ldr	r3, [r3, #8]
    92cc:	e30d2004 	movw	r2, #53252	; 0xd004
    92d0:	e3402000 	movt	r2, #0
    92d4:	e3013074 	movw	r3, #4212	; 0x1074
    92d8:	e0232593 	mla	r3, r3, r5, r2
    92dc:	e3012070 	movw	r2, #4208	; 0x1070
    92e0:	e7930002 	ldr	r0, [r3, r2]
    92e4:	e5901008 	ldr	r1, [r0, #8]
    92e8:	e3510000 	cmp	r1, #0
    92ec:	0a000061 	beq	9478 <syscall_mutex_unlock+0x250>
    92f0:	e5913008 	ldr	r3, [r1, #8]
    92f4:	e1540001 	cmp	r4, r1
    92f8:	1a00000a 	bne	9328 <syscall_mutex_unlock+0x100>
    92fc:	ea000003 	b	9310 <syscall_mutex_unlock+0xe8>
    9300:	e5932008 	ldr	r2, [r3, #8]
    9304:	e1540003 	cmp	r4, r3
    9308:	1a000004 	bne	9320 <syscall_mutex_unlock+0xf8>
    930c:	ea000001 	b	9318 <syscall_mutex_unlock+0xf0>
    9310:	e1a02003 	mov	r2, r3
    9314:	e1a01000 	mov	r1, r0
    9318:	e5812008 	str	r2, [r1, #8]
    931c:	ea000004 	b	9334 <syscall_mutex_unlock+0x10c>
    9320:	e1a01003 	mov	r1, r3
    9324:	e1a03002 	mov	r3, r2
    9328:	e3530000 	cmp	r3, #0
    932c:	1afffff3 	bne	9300 <syscall_mutex_unlock+0xd8>
    9330:	ea000050 	b	9478 <syscall_mutex_unlock+0x250>
    9334:	e30d2004 	movw	r2, #53252	; 0xd004
    9338:	e3402000 	movt	r2, #0
    933c:	e3013074 	movw	r3, #4212	; 0x1074
    9340:	e0232593 	mla	r3, r3, r5, r2
    9344:	e3012070 	movw	r2, #4208	; 0x1070
    9348:	e7933002 	ldr	r3, [r3, r2]
    934c:	e3530000 	cmp	r3, #0
    9350:	0a000011 	beq	939c <syscall_mutex_unlock+0x174>
    9354:	e3e02000 	mvn	r2, #0
    9358:	e3a01000 	mov	r1, #0
    935c:	e3720001 	cmn	r2, #1
    9360:	0a000002 	beq	9370 <syscall_mutex_unlock+0x148>
    9364:	e5930000 	ldr	r0, [r3]
    9368:	e1500002 	cmp	r0, r2
    936c:	aa000000 	bge	9374 <syscall_mutex_unlock+0x14c>
    9370:	e5932000 	ldr	r2, [r3]
    9374:	e593c000 	ldr	ip, [r3]
    9378:	e5940000 	ldr	r0, [r4]
    937c:	e15c0000 	cmp	ip, r0
    9380:	03a01001 	moveq	r1, #1
    9384:	e5933008 	ldr	r3, [r3, #8]
    9388:	e3530000 	cmp	r3, #0
    938c:	1afffff2 	bne	935c <syscall_mutex_unlock+0x134>
    9390:	e3720001 	cmn	r2, #1
    9394:	1a000006 	bne	93b4 <syscall_mutex_unlock+0x18c>
    9398:	ea000000 	b	93a0 <syscall_mutex_unlock+0x178>
    939c:	e3a01000 	mov	r1, #0
    93a0:	e30d2004 	movw	r2, #53252	; 0xd004
    93a4:	e3402000 	movt	r2, #0
    93a8:	e3013074 	movw	r3, #4212	; 0x1074
    93ac:	e0232593 	mla	r3, r3, r5, r2
    93b0:	e593205c 	ldr	r2, [r3, #92]	; 0x5c
    93b4:	e3510000 	cmp	r1, #0
    93b8:	1a000034 	bne	9490 <syscall_mutex_unlock+0x268>
    93bc:	e5940000 	ldr	r0, [r4]
    93c0:	e3a0c001 	mov	ip, #1
    93c4:	e30d3f08 	movw	r3, #57096	; 0xdf08
    93c8:	e3403002 	movt	r3, #2
    93cc:	e5931000 	ldr	r1, [r3]
    93d0:	e1c1101c 	bic	r1, r1, ip, lsl r0
    93d4:	e181021c 	orr	r0, r1, ip, lsl r2
    93d8:	e5830000 	str	r0, [r3]
    93dc:	e5941000 	ldr	r1, [r4]
    93e0:	e594c000 	ldr	ip, [r4]
    93e4:	e30d3e84 	movw	r3, #56964	; 0xde84
    93e8:	e3403002 	movt	r3, #2
    93ec:	e783c101 	str	ip, [r3, r1, lsl #2]
    93f0:	e5941000 	ldr	r1, [r4]
    93f4:	e30d3004 	movw	r3, #53252	; 0xd004
    93f8:	e3403000 	movt	r3, #0
    93fc:	e301c074 	movw	ip, #4212	; 0x1074
    9400:	e023319c 	mla	r3, ip, r1, r3
    9404:	e2833d41 	add	r3, r3, #4160	; 0x1040
    9408:	e2833028 	add	r3, r3, #40	; 0x28
    940c:	e5933004 	ldr	r3, [r3, #4]
    9410:	e3530000 	cmp	r3, #0
    9414:	0a00000d 	beq	9450 <syscall_mutex_unlock+0x228>
    9418:	e5941000 	ldr	r1, [r4]
    941c:	e30d3004 	movw	r3, #53252	; 0xd004
    9420:	e3403000 	movt	r3, #0
    9424:	e023319c 	mla	r3, ip, r1, r3
    9428:	e5d33068 	ldrb	r3, [r3, #104]	; 0x68
    942c:	e6ef3073 	uxtb	r3, r3
    9430:	e3530002 	cmp	r3, #2
    9434:	1a000005 	bne	9450 <syscall_mutex_unlock+0x228>
    9438:	e594c000 	ldr	ip, [r4]
    943c:	e30d3f08 	movw	r3, #57096	; 0xdf08
    9440:	e3403002 	movt	r3, #2
    9444:	e3a01001 	mov	r1, #1
    9448:	e1800c11 	orr	r0, r0, r1, lsl ip
    944c:	e5830000 	str	r0, [r3]
    9450:	e30c3000 	movw	r3, #49152	; 0xc000
    9454:	e3403000 	movt	r3, #0
    9458:	e5832000 	str	r2, [r3]
    945c:	e30d1004 	movw	r1, #53252	; 0xd004
    9460:	e3401000 	movt	r1, #0
    9464:	e3013074 	movw	r3, #4212	; 0x1074
    9468:	e0251593 	mla	r5, r3, r5, r1
    946c:	e5852060 	str	r2, [r5, #96]	; 0x60
    9470:	eb00008a 	bl	96a0 <enable_interrupts>
    9474:	e8bd8038 	pop	{r3, r4, r5, pc}
    9478:	e30b0074 	movw	r0, #45172	; 0xb074
    947c:	e3400000 	movt	r0, #0
    9480:	ebfffd42 	bl	8990 <printk>
    9484:	e3a00001 	mov	r0, #1
    9488:	ebfffe6a 	bl	8e38 <syscall_exit>
    948c:	eaffffa8 	b	9334 <syscall_mutex_unlock+0x10c>
    9490:	e30d3f08 	movw	r3, #57096	; 0xdf08
    9494:	e3403002 	movt	r3, #2
    9498:	e5931000 	ldr	r1, [r3]
    949c:	e3a00001 	mov	r0, #1
    94a0:	e1810210 	orr	r0, r1, r0, lsl r2
    94a4:	e5830000 	str	r0, [r3]
    94a8:	eaffffd0 	b	93f0 <syscall_mutex_unlock+0x1c8>

000094ac <syscall_wait_until_next_period>:
    94ac:	e92d4008 	push	{r3, lr}
    94b0:	e30c3000 	movw	r3, #49152	; 0xc000
    94b4:	e3403000 	movt	r3, #0
    94b8:	e5932000 	ldr	r2, [r3]
    94bc:	e30d3e84 	movw	r3, #56964	; 0xde84
    94c0:	e3403002 	movt	r3, #2
    94c4:	e7933102 	ldr	r3, [r3, r2, lsl #2]
    94c8:	e1520003 	cmp	r2, r3
    94cc:	0a000004 	beq	94e4 <syscall_wait_until_next_period+0x38>
    94d0:	e30b008c 	movw	r0, #45196	; 0xb08c
    94d4:	e3400000 	movt	r0, #0
    94d8:	ebfffd2c 	bl	8990 <printk>
    94dc:	e3a00001 	mov	r0, #1
    94e0:	ebfffe54 	bl	8e38 <syscall_exit>
    94e4:	e30c3000 	movw	r3, #49152	; 0xc000
    94e8:	e3403000 	movt	r3, #0
    94ec:	e5933000 	ldr	r3, [r3]
    94f0:	e30d1004 	movw	r1, #53252	; 0xd004
    94f4:	e3401000 	movt	r1, #0
    94f8:	e3012074 	movw	r2, #4212	; 0x1074
    94fc:	e0221392 	mla	r2, r2, r3, r1
    9500:	e3a01000 	mov	r1, #0
    9504:	e5c21068 	strb	r1, [r2, #104]	; 0x68
    9508:	e30d2004 	movw	r2, #53252	; 0xd004
    950c:	e3402000 	movt	r2, #0
    9510:	e3011074 	movw	r1, #4212	; 0x1074
    9514:	e0222391 	mla	r2, r1, r3, r2
    9518:	e5d23068 	ldrb	r3, [r2, #104]	; 0x68
    951c:	e31300ff 	tst	r3, #255	; 0xff
    9520:	0afffffc 	beq	9518 <syscall_wait_until_next_period+0x6c>
    9524:	e8bd8008 	pop	{r3, pc}

00009528 <syscall_get_time>:
    9528:	e30d3f04 	movw	r3, #57092	; 0xdf04
    952c:	e3403002 	movt	r3, #2
    9530:	e5930000 	ldr	r0, [r3]
    9534:	e12fff1e 	bx	lr

00009538 <syscall_scheduler_start>:
    9538:	e92d47f0 	push	{r4, r5, r6, r7, r8, r9, sl, lr}
    953c:	e30d4004 	movw	r4, #53252	; 0xd004
    9540:	e3404000 	movt	r4, #0
    9544:	e59f80a8 	ldr	r8, [pc, #168]	; 95f4 <syscall_scheduler_start+0xbc>
    9548:	e3a09000 	mov	r9, #0
    954c:	e3a05000 	mov	r5, #0
    9550:	e1a07004 	mov	r7, r4
    9554:	e3016074 	movw	r6, #4212	; 0x1074
    9558:	e0237596 	mla	r3, r6, r5, r7
    955c:	e5d33068 	ldrb	r3, [r3, #104]	; 0x68
    9560:	e6ef3073 	uxtb	r3, r3
    9564:	e3530002 	cmp	r3, #2
    9568:	1a00000b 	bne	959c <syscall_scheduler_start+0x64>
    956c:	e5940050 	ldr	r0, [r4, #80]	; 0x50
    9570:	eb0001aa 	bl	9c20 <__aeabi_ui2f>
    9574:	e1a0a000 	mov	sl, r0
    9578:	e5940054 	ldr	r0, [r4, #84]	; 0x54
    957c:	eb0001a7 	bl	9c20 <__aeabi_ui2f>
    9580:	e1a01000 	mov	r1, r0
    9584:	e1a0000a 	mov	r0, sl
    9588:	eb000243 	bl	9e9c <__aeabi_fdiv>
    958c:	e1a01000 	mov	r1, r0
    9590:	e1a00009 	mov	r0, r9
    9594:	eb000132 	bl	9a64 <__addsf3>
    9598:	e1a09000 	mov	r9, r0
    959c:	e2855001 	add	r5, r5, #1
    95a0:	e0844006 	add	r4, r4, r6
    95a4:	e1540008 	cmp	r4, r8
    95a8:	1affffea 	bne	9558 <syscall_scheduler_start+0x20>
    95ac:	e30d3f08 	movw	r3, #57096	; 0xdf08
    95b0:	e3403002 	movt	r3, #2
    95b4:	e5930000 	ldr	r0, [r3]
    95b8:	eb0002e3 	bl	a14c <__popcountsi2>
    95bc:	e30c3008 	movw	r3, #49160	; 0xc008
    95c0:	e3403000 	movt	r3, #0
    95c4:	e2402001 	sub	r2, r0, #1
    95c8:	e1a00009 	mov	r0, r9
    95cc:	e7931102 	ldr	r1, [r3, r2, lsl #2]
    95d0:	eb0002bc 	bl	a0c8 <__aeabi_fcmple>
    95d4:	e3500000 	cmp	r0, #0
    95d8:	0a000003 	beq	95ec <syscall_scheduler_start+0xb4>
    95dc:	eb00002f 	bl	96a0 <enable_interrupts>
    95e0:	e3a00ffa 	mov	r0, #1000	; 0x3e8
    95e4:	ebfffdd1 	bl	8d30 <timer_start>
    95e8:	eafffffe 	b	95e8 <syscall_scheduler_start+0xb0>
    95ec:	e3e00000 	mvn	r0, #0
    95f0:	e8bd87f0 	pop	{r4, r5, r6, r7, r8, r9, sl, pc}
    95f4:	0002ce10 	andeq	ip, r2, r0, lsl lr

000095f8 <syscall_sbrk>:
    95f8:	e30d3000 	movw	r3, #53248	; 0xd000
    95fc:	e3403000 	movt	r3, #0
    9600:	e5933000 	ldr	r3, [r3]
    9604:	e3530000 	cmp	r3, #0
    9608:	030d3000 	movweq	r3, #53248	; 0xd000
    960c:	03403000 	movteq	r3, #0
    9610:	030e2000 	movweq	r2, #57344	; 0xe000
    9614:	03402002 	movteq	r2, #2
    9618:	05832000 	streq	r2, [r3]
    961c:	e30d3000 	movw	r3, #53248	; 0xd000
    9620:	e3403000 	movt	r3, #0
    9624:	e5933000 	ldr	r3, [r3]
    9628:	e0830000 	add	r0, r3, r0
    962c:	e30e2000 	movw	r2, #57344	; 0xe000
    9630:	e3402012 	movt	r2, #18
    9634:	e1500002 	cmp	r0, r2
    9638:	930d2000 	movwls	r2, #53248	; 0xd000
    963c:	93402000 	movtls	r2, #0
    9640:	95820000 	strls	r0, [r2]
    9644:	91a00003 	movls	r0, r3
    9648:	83e00000 	mvnhi	r0, #0
    964c:	e12fff1e 	bx	lr

00009650 <syscall_close>:
    9650:	e3e00000 	mvn	r0, #0
    9654:	e12fff1e 	bx	lr

00009658 <syscall_fstat>:
    9658:	e3a00000 	mov	r0, #0
    965c:	e12fff1e 	bx	lr

00009660 <syscall_isatty>:
    9660:	e3a00001 	mov	r0, #1
    9664:	e12fff1e 	bx	lr

00009668 <syscall_lseek>:
    9668:	e3a00000 	mov	r0, #0
    966c:	e12fff1e 	bx	lr

00009670 <delay_cycles>:
    9670:	e2500001 	subs	r0, r0, #1
    9674:	1afffffd 	bne	9670 <delay_cycles>
    9678:	e1a0f00e 	mov	pc, lr

0000967c <read_cpsr>:
    967c:	e10f0000 	mrs	r0, CPSR
    9680:	e1a0f00e 	mov	pc, lr

00009684 <write_cpsr>:
    9684:	e129f000 	msr	CPSR_fc, r0
    9688:	e1a0f00e 	mov	pc, lr

0000968c <disable_interrupts>:
    968c:	e10f0000 	mrs	r0, CPSR
    9690:	e3a01d07 	mov	r1, #448	; 0x1c0
    9694:	e1800001 	orr	r0, r0, r1
    9698:	e129f000 	msr	CPSR_fc, r0
    969c:	e1a0f00e 	mov	pc, lr

000096a0 <enable_interrupts>:
    96a0:	e10f0000 	mrs	r0, CPSR
    96a4:	e3a01d07 	mov	r1, #448	; 0x1c0
    96a8:	e1c00001 	bic	r0, r0, r1
    96ac:	e129f000 	msr	CPSR_fc, r0
    96b0:	e1a0f00e 	mov	pc, lr

000096b4 <interrupt_vector_table>:
    96b4:	e59ff018 	ldr	pc, [pc, #24]	; 96d4 <_reset_asm_handler>
    96b8:	e59ff018 	ldr	pc, [pc, #24]	; 96d8 <_undefined_instruction_asm_handler>
    96bc:	e59ff018 	ldr	pc, [pc, #24]	; 96dc <_swi_asm_handler>
    96c0:	e59ff018 	ldr	pc, [pc, #24]	; 96e0 <_prefetch_abort_asm_handler>
    96c4:	e59ff018 	ldr	pc, [pc, #24]	; 96e4 <_data_abort_asm_handler>
    96c8:	e59ff004 	ldr	pc, [pc, #4]	; 96d4 <_reset_asm_handler>
    96cc:	e59ff014 	ldr	pc, [pc, #20]	; 96e8 <_irq_asm_handler>
    96d0:	e59ff014 	ldr	pc, [pc, #20]	; 96ec <_fiq_asm_handler>

000096d4 <_reset_asm_handler>:
    96d4:	000097b8 			; <UNDEFINED> instruction: 0x000097b8

000096d8 <_undefined_instruction_asm_handler>:
    96d8:	000097bc 			; <UNDEFINED> instruction: 0x000097bc

000096dc <_swi_asm_handler>:
    96dc:	00009714 	andeq	r9, r0, r4, lsl r7

000096e0 <_prefetch_abort_asm_handler>:
    96e0:	000097c0 	andeq	r9, r0, r0, asr #15

000096e4 <_data_abort_asm_handler>:
    96e4:	000097c4 	andeq	r9, r0, r4, asr #15

000096e8 <_irq_asm_handler>:
    96e8:	00009750 	andeq	r9, r0, r0, asr r7

000096ec <_fiq_asm_handler>:
    96ec:	000097c8 	andeq	r9, r0, r8, asr #15

000096f0 <install_interrupt_table>:
    96f0:	e92d03f0 	push	{r4, r5, r6, r7, r8, r9}
    96f4:	e59f00f0 	ldr	r0, [pc, #240]	; 97ec <enter_user_mode+0x20>
    96f8:	e3a01000 	mov	r1, #0
    96fc:	e8b003fc 	ldm	r0!, {r2, r3, r4, r5, r6, r7, r8, r9}
    9700:	e8a103fc 	stmia	r1!, {r2, r3, r4, r5, r6, r7, r8, r9}
    9704:	e8b001fc 	ldm	r0!, {r2, r3, r4, r5, r6, r7, r8}
    9708:	e8a101fc 	stmia	r1!, {r2, r3, r4, r5, r6, r7, r8}
    970c:	e8bd03f0 	pop	{r4, r5, r6, r7, r8, r9}
    9710:	e12fff1e 	bx	lr

00009714 <swi_asm_handler>:
    9714:	f1080080 	cpsie	i
    9718:	e24dd004 	sub	sp, sp, #4
    971c:	e92d5fff 	push	{r0, r1, r2, r3, r4, r5, r6, r7, r8, r9, sl, fp, ip, lr}
    9720:	e14f2000 	mrs	r2, SPSR
    9724:	e58d2038 	str	r2, [sp, #56]	; 0x38
    9728:	e1a0100d 	mov	r1, sp
    972c:	e51e0004 	ldr	r0, [lr, #-4]
    9730:	e3c004ff 	bic	r0, r0, #-16777216	; 0xff000000
    9734:	ebfffbfc 	bl	872c <swi_c_handler>
    9738:	e59d2038 	ldr	r2, [sp, #56]	; 0x38
    973c:	e169f002 	msr	SPSR_fc, r2
    9740:	e28dd004 	add	sp, sp, #4
    9744:	e8bd5ffe 	pop	{r1, r2, r3, r4, r5, r6, r7, r8, r9, sl, fp, ip, lr}
    9748:	e28dd004 	add	sp, sp, #4
    974c:	e1b0f00e 	movs	pc, lr

00009750 <irq_asm_handler>:
    9750:	e24ee004 	sub	lr, lr, #4
    9754:	e59fd094 	ldr	sp, [pc, #148]	; 97f0 <enter_user_mode+0x24>
    9758:	e92d5fff 	push	{r0, r1, r2, r3, r4, r5, r6, r7, r8, r9, sl, fp, ip, lr}
    975c:	e14f2000 	mrs	r2, SPSR
    9760:	e92d0004 	stmfd	sp!, {r2}
    9764:	e1a0000d 	mov	r0, sp
    9768:	e321f093 	msr	CPSR_c, #147	; 0x93
    976c:	e14f2000 	mrs	r2, SPSR
    9770:	e9206004 	stmdb	r0!, {r2, sp, lr}
    9774:	e321f09f 	msr	CPSR_c, #159	; 0x9f
    9778:	e9206000 	stmdb	r0!, {sp, lr}
    977c:	e321f092 	msr	CPSR_c, #146	; 0x92
    9780:	e1a0d000 	mov	sp, r0
    9784:	ebfffbc9 	bl	86b0 <irq_c_handler>
    9788:	e1a0d000 	mov	sp, r0
    978c:	e321f09f 	msr	CPSR_c, #159	; 0x9f
    9790:	e8b06000 	ldm	r0!, {sp, lr}
    9794:	e321f093 	msr	CPSR_c, #147	; 0x93
    9798:	e8b06004 	ldm	r0!, {r2, sp, lr}
    979c:	e169f002 	msr	SPSR_fc, r2
    97a0:	e321f092 	msr	CPSR_c, #146	; 0x92
    97a4:	e8b00004 	ldm	r0!, {r2}
    97a8:	e169f002 	msr	SPSR_fc, r2
    97ac:	e1a0d000 	mov	sp, r0
    97b0:	e8bd5fff 	pop	{r0, r1, r2, r3, r4, r5, r6, r7, r8, r9, sl, fp, ip, lr}
    97b4:	e1b0f00e 	movs	pc, lr

000097b8 <reset_asm_handler>:
    97b8:	e1200070 	bkpt	0x0000

000097bc <undefined_instruction_asm_handler>:
    97bc:	e1200070 	bkpt	0x0000

000097c0 <prefetch_abort_asm_handler>:
    97c0:	e1200070 	bkpt	0x0000

000097c4 <data_abort_asm_handler>:
    97c4:	e1200070 	bkpt	0x0000

000097c8 <fiq_asm_handler>:
    97c8:	e1200070 	bkpt	0x0000

000097cc <enter_user_mode>:
    97cc:	e24dd004 	sub	sp, sp, #4
    97d0:	e92d5fff 	push	{r0, r1, r2, r3, r4, r5, r6, r7, r8, r9, sl, fp, ip, lr}
    97d4:	e14f2000 	mrs	r2, SPSR
    97d8:	e58d2038 	str	r2, [sp, #56]	; 0x38
    97dc:	e3a02090 	mov	r2, #144	; 0x90
    97e0:	e121f002 	msr	CPSR_c, r2
    97e4:	e59fd008 	ldr	sp, [pc, #8]	; 97f4 <enter_user_mode+0x28>
    97e8:	eb0bda04 	bl	300000 <__user_program>
    97ec:	000096b4 			; <UNDEFINED> instruction: 0x000096b4
    97f0:	0014f000 	andseq	pc, r4, r0
    97f4:	0014e000 	andseq	lr, r4, r0

000097f8 <__aeabi_uidiv>:
    97f8:	e2512001 	subs	r2, r1, #1
    97fc:	012fff1e 	bxeq	lr
    9800:	3a000036 	bcc	98e0 <__aeabi_uidiv+0xe8>
    9804:	e1500001 	cmp	r0, r1
    9808:	9a000022 	bls	9898 <__aeabi_uidiv+0xa0>
    980c:	e1110002 	tst	r1, r2
    9810:	0a000023 	beq	98a4 <__aeabi_uidiv+0xac>
    9814:	e311020e 	tst	r1, #-536870912	; 0xe0000000
    9818:	01a01181 	lsleq	r1, r1, #3
    981c:	03a03008 	moveq	r3, #8
    9820:	13a03001 	movne	r3, #1
    9824:	e3510201 	cmp	r1, #268435456	; 0x10000000
    9828:	31510000 	cmpcc	r1, r0
    982c:	31a01201 	lslcc	r1, r1, #4
    9830:	31a03203 	lslcc	r3, r3, #4
    9834:	3afffffa 	bcc	9824 <__aeabi_uidiv+0x2c>
    9838:	e3510102 	cmp	r1, #-2147483648	; 0x80000000
    983c:	31510000 	cmpcc	r1, r0
    9840:	31a01081 	lslcc	r1, r1, #1
    9844:	31a03083 	lslcc	r3, r3, #1
    9848:	3afffffa 	bcc	9838 <__aeabi_uidiv+0x40>
    984c:	e3a02000 	mov	r2, #0
    9850:	e1500001 	cmp	r0, r1
    9854:	20400001 	subcs	r0, r0, r1
    9858:	21822003 	orrcs	r2, r2, r3
    985c:	e15000a1 	cmp	r0, r1, lsr #1
    9860:	204000a1 	subcs	r0, r0, r1, lsr #1
    9864:	218220a3 	orrcs	r2, r2, r3, lsr #1
    9868:	e1500121 	cmp	r0, r1, lsr #2
    986c:	20400121 	subcs	r0, r0, r1, lsr #2
    9870:	21822123 	orrcs	r2, r2, r3, lsr #2
    9874:	e15001a1 	cmp	r0, r1, lsr #3
    9878:	204001a1 	subcs	r0, r0, r1, lsr #3
    987c:	218221a3 	orrcs	r2, r2, r3, lsr #3
    9880:	e3500000 	cmp	r0, #0
    9884:	11b03223 	lsrsne	r3, r3, #4
    9888:	11a01221 	lsrne	r1, r1, #4
    988c:	1affffef 	bne	9850 <__aeabi_uidiv+0x58>
    9890:	e1a00002 	mov	r0, r2
    9894:	e12fff1e 	bx	lr
    9898:	03a00001 	moveq	r0, #1
    989c:	13a00000 	movne	r0, #0
    98a0:	e12fff1e 	bx	lr
    98a4:	e3510801 	cmp	r1, #65536	; 0x10000
    98a8:	21a01821 	lsrcs	r1, r1, #16
    98ac:	23a02010 	movcs	r2, #16
    98b0:	33a02000 	movcc	r2, #0
    98b4:	e3510c01 	cmp	r1, #256	; 0x100
    98b8:	21a01421 	lsrcs	r1, r1, #8
    98bc:	22822008 	addcs	r2, r2, #8
    98c0:	e3510010 	cmp	r1, #16
    98c4:	21a01221 	lsrcs	r1, r1, #4
    98c8:	22822004 	addcs	r2, r2, #4
    98cc:	e3510004 	cmp	r1, #4
    98d0:	82822003 	addhi	r2, r2, #3
    98d4:	908220a1 	addls	r2, r2, r1, lsr #1
    98d8:	e1a00230 	lsr	r0, r0, r2
    98dc:	e12fff1e 	bx	lr
    98e0:	e3500000 	cmp	r0, #0
    98e4:	13e00000 	mvnne	r0, #0
    98e8:	ea000059 	b	9a54 <__aeabi_idiv0>

000098ec <__aeabi_uidivmod>:
    98ec:	e3510000 	cmp	r1, #0
    98f0:	0afffffa 	beq	98e0 <__aeabi_uidiv+0xe8>
    98f4:	e92d4003 	push	{r0, r1, lr}
    98f8:	ebffffbe 	bl	97f8 <__aeabi_uidiv>
    98fc:	e8bd4006 	pop	{r1, r2, lr}
    9900:	e0030092 	mul	r3, r2, r0
    9904:	e0411003 	sub	r1, r1, r3
    9908:	e12fff1e 	bx	lr

0000990c <__aeabi_idiv>:
    990c:	e3510000 	cmp	r1, #0
    9910:	0a000043 	beq	9a24 <.divsi3_skip_div0_test+0x110>

00009914 <.divsi3_skip_div0_test>:
    9914:	e020c001 	eor	ip, r0, r1
    9918:	42611000 	rsbmi	r1, r1, #0
    991c:	e2512001 	subs	r2, r1, #1
    9920:	0a000027 	beq	99c4 <.divsi3_skip_div0_test+0xb0>
    9924:	e1b03000 	movs	r3, r0
    9928:	42603000 	rsbmi	r3, r0, #0
    992c:	e1530001 	cmp	r3, r1
    9930:	9a000026 	bls	99d0 <.divsi3_skip_div0_test+0xbc>
    9934:	e1110002 	tst	r1, r2
    9938:	0a000028 	beq	99e0 <.divsi3_skip_div0_test+0xcc>
    993c:	e311020e 	tst	r1, #-536870912	; 0xe0000000
    9940:	01a01181 	lsleq	r1, r1, #3
    9944:	03a02008 	moveq	r2, #8
    9948:	13a02001 	movne	r2, #1
    994c:	e3510201 	cmp	r1, #268435456	; 0x10000000
    9950:	31510003 	cmpcc	r1, r3
    9954:	31a01201 	lslcc	r1, r1, #4
    9958:	31a02202 	lslcc	r2, r2, #4
    995c:	3afffffa 	bcc	994c <.divsi3_skip_div0_test+0x38>
    9960:	e3510102 	cmp	r1, #-2147483648	; 0x80000000
    9964:	31510003 	cmpcc	r1, r3
    9968:	31a01081 	lslcc	r1, r1, #1
    996c:	31a02082 	lslcc	r2, r2, #1
    9970:	3afffffa 	bcc	9960 <.divsi3_skip_div0_test+0x4c>
    9974:	e3a00000 	mov	r0, #0
    9978:	e1530001 	cmp	r3, r1
    997c:	20433001 	subcs	r3, r3, r1
    9980:	21800002 	orrcs	r0, r0, r2
    9984:	e15300a1 	cmp	r3, r1, lsr #1
    9988:	204330a1 	subcs	r3, r3, r1, lsr #1
    998c:	218000a2 	orrcs	r0, r0, r2, lsr #1
    9990:	e1530121 	cmp	r3, r1, lsr #2
    9994:	20433121 	subcs	r3, r3, r1, lsr #2
    9998:	21800122 	orrcs	r0, r0, r2, lsr #2
    999c:	e15301a1 	cmp	r3, r1, lsr #3
    99a0:	204331a1 	subcs	r3, r3, r1, lsr #3
    99a4:	218001a2 	orrcs	r0, r0, r2, lsr #3
    99a8:	e3530000 	cmp	r3, #0
    99ac:	11b02222 	lsrsne	r2, r2, #4
    99b0:	11a01221 	lsrne	r1, r1, #4
    99b4:	1affffef 	bne	9978 <.divsi3_skip_div0_test+0x64>
    99b8:	e35c0000 	cmp	ip, #0
    99bc:	42600000 	rsbmi	r0, r0, #0
    99c0:	e12fff1e 	bx	lr
    99c4:	e13c0000 	teq	ip, r0
    99c8:	42600000 	rsbmi	r0, r0, #0
    99cc:	e12fff1e 	bx	lr
    99d0:	33a00000 	movcc	r0, #0
    99d4:	01a00fcc 	asreq	r0, ip, #31
    99d8:	03800001 	orreq	r0, r0, #1
    99dc:	e12fff1e 	bx	lr
    99e0:	e3510801 	cmp	r1, #65536	; 0x10000
    99e4:	21a01821 	lsrcs	r1, r1, #16
    99e8:	23a02010 	movcs	r2, #16
    99ec:	33a02000 	movcc	r2, #0
    99f0:	e3510c01 	cmp	r1, #256	; 0x100
    99f4:	21a01421 	lsrcs	r1, r1, #8
    99f8:	22822008 	addcs	r2, r2, #8
    99fc:	e3510010 	cmp	r1, #16
    9a00:	21a01221 	lsrcs	r1, r1, #4
    9a04:	22822004 	addcs	r2, r2, #4
    9a08:	e3510004 	cmp	r1, #4
    9a0c:	82822003 	addhi	r2, r2, #3
    9a10:	908220a1 	addls	r2, r2, r1, lsr #1
    9a14:	e35c0000 	cmp	ip, #0
    9a18:	e1a00233 	lsr	r0, r3, r2
    9a1c:	42600000 	rsbmi	r0, r0, #0
    9a20:	e12fff1e 	bx	lr
    9a24:	e3500000 	cmp	r0, #0
    9a28:	c3e00102 	mvngt	r0, #-2147483648	; 0x80000000
    9a2c:	b3a00102 	movlt	r0, #-2147483648	; 0x80000000
    9a30:	ea000007 	b	9a54 <__aeabi_idiv0>

00009a34 <__aeabi_idivmod>:
    9a34:	e3510000 	cmp	r1, #0
    9a38:	0afffff9 	beq	9a24 <.divsi3_skip_div0_test+0x110>
    9a3c:	e92d4003 	push	{r0, r1, lr}
    9a40:	ebffffb3 	bl	9914 <.divsi3_skip_div0_test>
    9a44:	e8bd4006 	pop	{r1, r2, lr}
    9a48:	e0030092 	mul	r3, r2, r0
    9a4c:	e0411003 	sub	r1, r1, r3
    9a50:	e12fff1e 	bx	lr

00009a54 <__aeabi_idiv0>:
    9a54:	e12fff1e 	bx	lr

00009a58 <__aeabi_frsub>:
    9a58:	e2200102 	eor	r0, r0, #-2147483648	; 0x80000000
    9a5c:	ea000000 	b	9a64 <__addsf3>

00009a60 <__aeabi_fsub>:
    9a60:	e2211102 	eor	r1, r1, #-2147483648	; 0x80000000

00009a64 <__addsf3>:
    9a64:	e1b02080 	lsls	r2, r0, #1
    9a68:	11b03081 	lslsne	r3, r1, #1
    9a6c:	11320003 	teqne	r2, r3
    9a70:	11f0cc42 	mvnsne	ip, r2, asr #24
    9a74:	11f0cc43 	mvnsne	ip, r3, asr #24
    9a78:	0a000047 	beq	9b9c <__addsf3+0x138>
    9a7c:	e1a02c22 	lsr	r2, r2, #24
    9a80:	e0723c23 	rsbs	r3, r2, r3, lsr #24
    9a84:	c0822003 	addgt	r2, r2, r3
    9a88:	c0201001 	eorgt	r1, r0, r1
    9a8c:	c0210000 	eorgt	r0, r1, r0
    9a90:	c0201001 	eorgt	r1, r0, r1
    9a94:	b2633000 	rsblt	r3, r3, #0
    9a98:	e3530019 	cmp	r3, #25
    9a9c:	812fff1e 	bxhi	lr
    9aa0:	e3100102 	tst	r0, #-2147483648	; 0x80000000
    9aa4:	e3800502 	orr	r0, r0, #8388608	; 0x800000
    9aa8:	e3c004ff 	bic	r0, r0, #-16777216	; 0xff000000
    9aac:	12600000 	rsbne	r0, r0, #0
    9ab0:	e3110102 	tst	r1, #-2147483648	; 0x80000000
    9ab4:	e3811502 	orr	r1, r1, #8388608	; 0x800000
    9ab8:	e3c114ff 	bic	r1, r1, #-16777216	; 0xff000000
    9abc:	12611000 	rsbne	r1, r1, #0
    9ac0:	e1320003 	teq	r2, r3
    9ac4:	0a00002e 	beq	9b84 <__addsf3+0x120>
    9ac8:	e2422001 	sub	r2, r2, #1
    9acc:	e0900351 	adds	r0, r0, r1, asr r3
    9ad0:	e2633020 	rsb	r3, r3, #32
    9ad4:	e1a01311 	lsl	r1, r1, r3
    9ad8:	e2003102 	and	r3, r0, #-2147483648	; 0x80000000
    9adc:	5a000001 	bpl	9ae8 <__addsf3+0x84>
    9ae0:	e2711000 	rsbs	r1, r1, #0
    9ae4:	e2e00000 	rsc	r0, r0, #0
    9ae8:	e3500502 	cmp	r0, #8388608	; 0x800000
    9aec:	3a00000b 	bcc	9b20 <__addsf3+0xbc>
    9af0:	e3500401 	cmp	r0, #16777216	; 0x1000000
    9af4:	3a000004 	bcc	9b0c <__addsf3+0xa8>
    9af8:	e1b000a0 	lsrs	r0, r0, #1
    9afc:	e1a01061 	rrx	r1, r1
    9b00:	e2822001 	add	r2, r2, #1
    9b04:	e35200fe 	cmp	r2, #254	; 0xfe
    9b08:	2a000038 	bcs	9bf0 <__addsf3+0x18c>
    9b0c:	e3510102 	cmp	r1, #-2147483648	; 0x80000000
    9b10:	e0a00b82 	adc	r0, r0, r2, lsl #23
    9b14:	03c00001 	biceq	r0, r0, #1
    9b18:	e1800003 	orr	r0, r0, r3
    9b1c:	e12fff1e 	bx	lr
    9b20:	e1b01081 	lsls	r1, r1, #1
    9b24:	e0a00000 	adc	r0, r0, r0
    9b28:	e3100502 	tst	r0, #8388608	; 0x800000
    9b2c:	e2422001 	sub	r2, r2, #1
    9b30:	1afffff5 	bne	9b0c <__addsf3+0xa8>
    9b34:	e1b0c620 	lsrs	ip, r0, #12
    9b38:	01a00600 	lsleq	r0, r0, #12
    9b3c:	0242200c 	subeq	r2, r2, #12
    9b40:	e31008ff 	tst	r0, #16711680	; 0xff0000
    9b44:	01a00400 	lsleq	r0, r0, #8
    9b48:	02422008 	subeq	r2, r2, #8
    9b4c:	e310060f 	tst	r0, #15728640	; 0xf00000
    9b50:	01a00200 	lsleq	r0, r0, #4
    9b54:	02422004 	subeq	r2, r2, #4
    9b58:	e3100503 	tst	r0, #12582912	; 0xc00000
    9b5c:	01a00100 	lsleq	r0, r0, #2
    9b60:	02422002 	subeq	r2, r2, #2
    9b64:	e3500502 	cmp	r0, #8388608	; 0x800000
    9b68:	31a00080 	lslcc	r0, r0, #1
    9b6c:	e2d22000 	sbcs	r2, r2, #0
    9b70:	a0800b82 	addge	r0, r0, r2, lsl #23
    9b74:	b2622000 	rsblt	r2, r2, #0
    9b78:	a1800003 	orrge	r0, r0, r3
    9b7c:	b1830230 	orrlt	r0, r3, r0, lsr r2
    9b80:	e12fff1e 	bx	lr
    9b84:	e3320000 	teq	r2, #0
    9b88:	e2211502 	eor	r1, r1, #8388608	; 0x800000
    9b8c:	02200502 	eoreq	r0, r0, #8388608	; 0x800000
    9b90:	02822001 	addeq	r2, r2, #1
    9b94:	12433001 	subne	r3, r3, #1
    9b98:	eaffffca 	b	9ac8 <__addsf3+0x64>
    9b9c:	e1a03081 	lsl	r3, r1, #1
    9ba0:	e1f0cc42 	mvns	ip, r2, asr #24
    9ba4:	11f0cc43 	mvnsne	ip, r3, asr #24
    9ba8:	0a000013 	beq	9bfc <__addsf3+0x198>
    9bac:	e1320003 	teq	r2, r3
    9bb0:	0a000002 	beq	9bc0 <__addsf3+0x15c>
    9bb4:	e3320000 	teq	r2, #0
    9bb8:	01a00001 	moveq	r0, r1
    9bbc:	e12fff1e 	bx	lr
    9bc0:	e1300001 	teq	r0, r1
    9bc4:	13a00000 	movne	r0, #0
    9bc8:	112fff1e 	bxne	lr
    9bcc:	e31204ff 	tst	r2, #-16777216	; 0xff000000
    9bd0:	1a000002 	bne	9be0 <__addsf3+0x17c>
    9bd4:	e1b00080 	lsls	r0, r0, #1
    9bd8:	23800102 	orrcs	r0, r0, #-2147483648	; 0x80000000
    9bdc:	e12fff1e 	bx	lr
    9be0:	e2922402 	adds	r2, r2, #33554432	; 0x2000000
    9be4:	32800502 	addcc	r0, r0, #8388608	; 0x800000
    9be8:	312fff1e 	bxcc	lr
    9bec:	e2003102 	and	r3, r0, #-2147483648	; 0x80000000
    9bf0:	e383047f 	orr	r0, r3, #2130706432	; 0x7f000000
    9bf4:	e3800502 	orr	r0, r0, #8388608	; 0x800000
    9bf8:	e12fff1e 	bx	lr
    9bfc:	e1f02c42 	mvns	r2, r2, asr #24
    9c00:	11a00001 	movne	r0, r1
    9c04:	01f03c43 	mvnseq	r3, r3, asr #24
    9c08:	11a01000 	movne	r1, r0
    9c0c:	e1b02480 	lsls	r2, r0, #9
    9c10:	01b03481 	lslseq	r3, r1, #9
    9c14:	01300001 	teqeq	r0, r1
    9c18:	13800501 	orrne	r0, r0, #4194304	; 0x400000
    9c1c:	e12fff1e 	bx	lr

00009c20 <__aeabi_ui2f>:
    9c20:	e3a03000 	mov	r3, #0
    9c24:	ea000001 	b	9c30 <__aeabi_i2f+0x8>

00009c28 <__aeabi_i2f>:
    9c28:	e2103102 	ands	r3, r0, #-2147483648	; 0x80000000
    9c2c:	42600000 	rsbmi	r0, r0, #0
    9c30:	e1b0c000 	movs	ip, r0
    9c34:	012fff1e 	bxeq	lr
    9c38:	e383344b 	orr	r3, r3, #1258291200	; 0x4b000000
    9c3c:	e1a01000 	mov	r1, r0
    9c40:	e3a00000 	mov	r0, #0
    9c44:	ea00000f 	b	9c88 <__aeabi_l2f+0x30>

00009c48 <__aeabi_ul2f>:
    9c48:	e1902001 	orrs	r2, r0, r1
    9c4c:	012fff1e 	bxeq	lr
    9c50:	e3a03000 	mov	r3, #0
    9c54:	ea000005 	b	9c70 <__aeabi_l2f+0x18>

00009c58 <__aeabi_l2f>:
    9c58:	e1902001 	orrs	r2, r0, r1
    9c5c:	012fff1e 	bxeq	lr
    9c60:	e2113102 	ands	r3, r1, #-2147483648	; 0x80000000
    9c64:	5a000001 	bpl	9c70 <__aeabi_l2f+0x18>
    9c68:	e2700000 	rsbs	r0, r0, #0
    9c6c:	e2e11000 	rsc	r1, r1, #0
    9c70:	e1b0c001 	movs	ip, r1
    9c74:	01a0c000 	moveq	ip, r0
    9c78:	01a01000 	moveq	r1, r0
    9c7c:	03a00000 	moveq	r0, #0
    9c80:	e383345b 	orr	r3, r3, #1526726656	; 0x5b000000
    9c84:	02433201 	subeq	r3, r3, #268435456	; 0x10000000
    9c88:	e2433502 	sub	r3, r3, #8388608	; 0x800000
    9c8c:	e3a02017 	mov	r2, #23
    9c90:	e35c0801 	cmp	ip, #65536	; 0x10000
    9c94:	21a0c82c 	lsrcs	ip, ip, #16
    9c98:	22422010 	subcs	r2, r2, #16
    9c9c:	e35c0c01 	cmp	ip, #256	; 0x100
    9ca0:	21a0c42c 	lsrcs	ip, ip, #8
    9ca4:	22422008 	subcs	r2, r2, #8
    9ca8:	e35c0010 	cmp	ip, #16
    9cac:	21a0c22c 	lsrcs	ip, ip, #4
    9cb0:	22422004 	subcs	r2, r2, #4
    9cb4:	e35c0004 	cmp	ip, #4
    9cb8:	22422002 	subcs	r2, r2, #2
    9cbc:	304220ac 	subcc	r2, r2, ip, lsr #1
    9cc0:	e05221ac 	subs	r2, r2, ip, lsr #3
    9cc4:	e0433b82 	sub	r3, r3, r2, lsl #23
    9cc8:	ba000006 	blt	9ce8 <__aeabi_l2f+0x90>
    9ccc:	e0833211 	add	r3, r3, r1, lsl r2
    9cd0:	e1a0c210 	lsl	ip, r0, r2
    9cd4:	e2622020 	rsb	r2, r2, #32
    9cd8:	e35c0102 	cmp	ip, #-2147483648	; 0x80000000
    9cdc:	e0a30230 	adc	r0, r3, r0, lsr r2
    9ce0:	03c00001 	biceq	r0, r0, #1
    9ce4:	e12fff1e 	bx	lr
    9ce8:	e2822020 	add	r2, r2, #32
    9cec:	e1a0c211 	lsl	ip, r1, r2
    9cf0:	e2622020 	rsb	r2, r2, #32
    9cf4:	e190008c 	orrs	r0, r0, ip, lsl #1
    9cf8:	e0a30231 	adc	r0, r3, r1, lsr r2
    9cfc:	01c00fac 	biceq	r0, r0, ip, lsr #31
    9d00:	e12fff1e 	bx	lr

00009d04 <__aeabi_fmul>:
    9d04:	e3a0c0ff 	mov	ip, #255	; 0xff
    9d08:	e01c2ba0 	ands	r2, ip, r0, lsr #23
    9d0c:	101c3ba1 	andsne	r3, ip, r1, lsr #23
    9d10:	1132000c 	teqne	r2, ip
    9d14:	1133000c 	teqne	r3, ip
    9d18:	0a00003e 	beq	9e18 <__aeabi_fmul+0x114>
    9d1c:	e0822003 	add	r2, r2, r3
    9d20:	e020c001 	eor	ip, r0, r1
    9d24:	e1b00480 	lsls	r0, r0, #9
    9d28:	11b01481 	lslsne	r1, r1, #9
    9d2c:	0a000010 	beq	9d74 <__aeabi_fmul+0x70>
    9d30:	e3a03302 	mov	r3, #134217728	; 0x8000000
    9d34:	e18302a0 	orr	r0, r3, r0, lsr #5
    9d38:	e18312a1 	orr	r1, r3, r1, lsr #5
    9d3c:	e0813190 	umull	r3, r1, r0, r1
    9d40:	e20c0102 	and	r0, ip, #-2147483648	; 0x80000000
    9d44:	e3510502 	cmp	r1, #8388608	; 0x800000
    9d48:	31a01081 	lslcc	r1, r1, #1
    9d4c:	31811fa3 	orrcc	r1, r1, r3, lsr #31
    9d50:	31a03083 	lslcc	r3, r3, #1
    9d54:	e1800001 	orr	r0, r0, r1
    9d58:	e2c2207f 	sbc	r2, r2, #127	; 0x7f
    9d5c:	e35200fd 	cmp	r2, #253	; 0xfd
    9d60:	8a00000f 	bhi	9da4 <__aeabi_fmul+0xa0>
    9d64:	e3530102 	cmp	r3, #-2147483648	; 0x80000000
    9d68:	e0a00b82 	adc	r0, r0, r2, lsl #23
    9d6c:	03c00001 	biceq	r0, r0, #1
    9d70:	e12fff1e 	bx	lr
    9d74:	e3300000 	teq	r0, #0
    9d78:	e20cc102 	and	ip, ip, #-2147483648	; 0x80000000
    9d7c:	01a01481 	lsleq	r1, r1, #9
    9d80:	e18c04a0 	orr	r0, ip, r0, lsr #9
    9d84:	e18004a1 	orr	r0, r0, r1, lsr #9
    9d88:	e252207f 	subs	r2, r2, #127	; 0x7f
    9d8c:	c27230ff 	rsbsgt	r3, r2, #255	; 0xff
    9d90:	c1800b82 	orrgt	r0, r0, r2, lsl #23
    9d94:	c12fff1e 	bxgt	lr
    9d98:	e3800502 	orr	r0, r0, #8388608	; 0x800000
    9d9c:	e3a03000 	mov	r3, #0
    9da0:	e2522001 	subs	r2, r2, #1
    9da4:	ca000035 	bgt	9e80 <__aeabi_fmul+0x17c>
    9da8:	e3720019 	cmn	r2, #25
    9dac:	d2000102 	andle	r0, r0, #-2147483648	; 0x80000000
    9db0:	d12fff1e 	bxle	lr
    9db4:	e2622000 	rsb	r2, r2, #0
    9db8:	e1b01080 	lsls	r1, r0, #1
    9dbc:	e1a01231 	lsr	r1, r1, r2
    9dc0:	e2622020 	rsb	r2, r2, #32
    9dc4:	e1a0c210 	lsl	ip, r0, r2
    9dc8:	e1b00061 	rrxs	r0, r1
    9dcc:	e2a00000 	adc	r0, r0, #0
    9dd0:	e193308c 	orrs	r3, r3, ip, lsl #1
    9dd4:	01c00fac 	biceq	r0, r0, ip, lsr #31
    9dd8:	e12fff1e 	bx	lr
    9ddc:	e3320000 	teq	r2, #0
    9de0:	e200c102 	and	ip, r0, #-2147483648	; 0x80000000
    9de4:	01a00080 	lsleq	r0, r0, #1
    9de8:	03100502 	tsteq	r0, #8388608	; 0x800000
    9dec:	02422001 	subeq	r2, r2, #1
    9df0:	0afffffb 	beq	9de4 <__aeabi_fmul+0xe0>
    9df4:	e180000c 	orr	r0, r0, ip
    9df8:	e3330000 	teq	r3, #0
    9dfc:	e201c102 	and	ip, r1, #-2147483648	; 0x80000000
    9e00:	01a01081 	lsleq	r1, r1, #1
    9e04:	03110502 	tsteq	r1, #8388608	; 0x800000
    9e08:	02433001 	subeq	r3, r3, #1
    9e0c:	0afffffb 	beq	9e00 <__aeabi_fmul+0xfc>
    9e10:	e181100c 	orr	r1, r1, ip
    9e14:	eaffffc0 	b	9d1c <__aeabi_fmul+0x18>
    9e18:	e00c3ba1 	and	r3, ip, r1, lsr #23
    9e1c:	e132000c 	teq	r2, ip
    9e20:	1133000c 	teqne	r3, ip
    9e24:	0a000005 	beq	9e40 <__aeabi_fmul+0x13c>
    9e28:	e3d0c102 	bics	ip, r0, #-2147483648	; 0x80000000
    9e2c:	13d1c102 	bicsne	ip, r1, #-2147483648	; 0x80000000
    9e30:	1affffe9 	bne	9ddc <__aeabi_fmul+0xd8>
    9e34:	e0200001 	eor	r0, r0, r1
    9e38:	e2000102 	and	r0, r0, #-2147483648	; 0x80000000
    9e3c:	e12fff1e 	bx	lr
    9e40:	e3300000 	teq	r0, #0
    9e44:	13300102 	teqne	r0, #-2147483648	; 0x80000000
    9e48:	01a00001 	moveq	r0, r1
    9e4c:	13310000 	teqne	r1, #0
    9e50:	13310102 	teqne	r1, #-2147483648	; 0x80000000
    9e54:	0a00000d 	beq	9e90 <__aeabi_fmul+0x18c>
    9e58:	e132000c 	teq	r2, ip
    9e5c:	1a000001 	bne	9e68 <__aeabi_fmul+0x164>
    9e60:	e1b02480 	lsls	r2, r0, #9
    9e64:	1a000009 	bne	9e90 <__aeabi_fmul+0x18c>
    9e68:	e133000c 	teq	r3, ip
    9e6c:	1a000002 	bne	9e7c <__aeabi_fmul+0x178>
    9e70:	e1b03481 	lsls	r3, r1, #9
    9e74:	11a00001 	movne	r0, r1
    9e78:	1a000004 	bne	9e90 <__aeabi_fmul+0x18c>
    9e7c:	e0200001 	eor	r0, r0, r1
    9e80:	e2000102 	and	r0, r0, #-2147483648	; 0x80000000
    9e84:	e380047f 	orr	r0, r0, #2130706432	; 0x7f000000
    9e88:	e3800502 	orr	r0, r0, #8388608	; 0x800000
    9e8c:	e12fff1e 	bx	lr
    9e90:	e380047f 	orr	r0, r0, #2130706432	; 0x7f000000
    9e94:	e3800503 	orr	r0, r0, #12582912	; 0xc00000
    9e98:	e12fff1e 	bx	lr

00009e9c <__aeabi_fdiv>:
    9e9c:	e3a0c0ff 	mov	ip, #255	; 0xff
    9ea0:	e01c2ba0 	ands	r2, ip, r0, lsr #23
    9ea4:	101c3ba1 	andsne	r3, ip, r1, lsr #23
    9ea8:	1132000c 	teqne	r2, ip
    9eac:	1133000c 	teqne	r3, ip
    9eb0:	0a00003a 	beq	9fa0 <__aeabi_fdiv+0x104>
    9eb4:	e0422003 	sub	r2, r2, r3
    9eb8:	e020c001 	eor	ip, r0, r1
    9ebc:	e1b01481 	lsls	r1, r1, #9
    9ec0:	e1a00480 	lsl	r0, r0, #9
    9ec4:	0a00001c 	beq	9f3c <__aeabi_fdiv+0xa0>
    9ec8:	e3a03201 	mov	r3, #268435456	; 0x10000000
    9ecc:	e1831221 	orr	r1, r3, r1, lsr #4
    9ed0:	e1833220 	orr	r3, r3, r0, lsr #4
    9ed4:	e20c0102 	and	r0, ip, #-2147483648	; 0x80000000
    9ed8:	e1530001 	cmp	r3, r1
    9edc:	31a03083 	lslcc	r3, r3, #1
    9ee0:	e2a2207d 	adc	r2, r2, #125	; 0x7d
    9ee4:	e3a0c502 	mov	ip, #8388608	; 0x800000
    9ee8:	e1530001 	cmp	r3, r1
    9eec:	20433001 	subcs	r3, r3, r1
    9ef0:	2180000c 	orrcs	r0, r0, ip
    9ef4:	e15300a1 	cmp	r3, r1, lsr #1
    9ef8:	204330a1 	subcs	r3, r3, r1, lsr #1
    9efc:	218000ac 	orrcs	r0, r0, ip, lsr #1
    9f00:	e1530121 	cmp	r3, r1, lsr #2
    9f04:	20433121 	subcs	r3, r3, r1, lsr #2
    9f08:	2180012c 	orrcs	r0, r0, ip, lsr #2
    9f0c:	e15301a1 	cmp	r3, r1, lsr #3
    9f10:	204331a1 	subcs	r3, r3, r1, lsr #3
    9f14:	218001ac 	orrcs	r0, r0, ip, lsr #3
    9f18:	e1b03203 	lsls	r3, r3, #4
    9f1c:	11b0c22c 	lsrsne	ip, ip, #4
    9f20:	1afffff0 	bne	9ee8 <__aeabi_fdiv+0x4c>
    9f24:	e35200fd 	cmp	r2, #253	; 0xfd
    9f28:	8affff9d 	bhi	9da4 <__aeabi_fmul+0xa0>
    9f2c:	e1530001 	cmp	r3, r1
    9f30:	e0a00b82 	adc	r0, r0, r2, lsl #23
    9f34:	03c00001 	biceq	r0, r0, #1
    9f38:	e12fff1e 	bx	lr
    9f3c:	e20cc102 	and	ip, ip, #-2147483648	; 0x80000000
    9f40:	e18c04a0 	orr	r0, ip, r0, lsr #9
    9f44:	e292207f 	adds	r2, r2, #127	; 0x7f
    9f48:	c27230ff 	rsbsgt	r3, r2, #255	; 0xff
    9f4c:	c1800b82 	orrgt	r0, r0, r2, lsl #23
    9f50:	c12fff1e 	bxgt	lr
    9f54:	e3800502 	orr	r0, r0, #8388608	; 0x800000
    9f58:	e3a03000 	mov	r3, #0
    9f5c:	e2522001 	subs	r2, r2, #1
    9f60:	eaffff8f 	b	9da4 <__aeabi_fmul+0xa0>
    9f64:	e3320000 	teq	r2, #0
    9f68:	e200c102 	and	ip, r0, #-2147483648	; 0x80000000
    9f6c:	01a00080 	lsleq	r0, r0, #1
    9f70:	03100502 	tsteq	r0, #8388608	; 0x800000
    9f74:	02422001 	subeq	r2, r2, #1
    9f78:	0afffffb 	beq	9f6c <__aeabi_fdiv+0xd0>
    9f7c:	e180000c 	orr	r0, r0, ip
    9f80:	e3330000 	teq	r3, #0
    9f84:	e201c102 	and	ip, r1, #-2147483648	; 0x80000000
    9f88:	01a01081 	lsleq	r1, r1, #1
    9f8c:	03110502 	tsteq	r1, #8388608	; 0x800000
    9f90:	02433001 	subeq	r3, r3, #1
    9f94:	0afffffb 	beq	9f88 <__aeabi_fdiv+0xec>
    9f98:	e181100c 	orr	r1, r1, ip
    9f9c:	eaffffc4 	b	9eb4 <__aeabi_fdiv+0x18>
    9fa0:	e00c3ba1 	and	r3, ip, r1, lsr #23
    9fa4:	e132000c 	teq	r2, ip
    9fa8:	1a000005 	bne	9fc4 <__aeabi_fdiv+0x128>
    9fac:	e1b02480 	lsls	r2, r0, #9
    9fb0:	1affffb6 	bne	9e90 <__aeabi_fmul+0x18c>
    9fb4:	e133000c 	teq	r3, ip
    9fb8:	1affffaf 	bne	9e7c <__aeabi_fmul+0x178>
    9fbc:	e1a00001 	mov	r0, r1
    9fc0:	eaffffb2 	b	9e90 <__aeabi_fmul+0x18c>
    9fc4:	e133000c 	teq	r3, ip
    9fc8:	1a000003 	bne	9fdc <__aeabi_fdiv+0x140>
    9fcc:	e1b03481 	lsls	r3, r1, #9
    9fd0:	0affff97 	beq	9e34 <__aeabi_fmul+0x130>
    9fd4:	e1a00001 	mov	r0, r1
    9fd8:	eaffffac 	b	9e90 <__aeabi_fmul+0x18c>
    9fdc:	e3d0c102 	bics	ip, r0, #-2147483648	; 0x80000000
    9fe0:	13d1c102 	bicsne	ip, r1, #-2147483648	; 0x80000000
    9fe4:	1affffde 	bne	9f64 <__aeabi_fdiv+0xc8>
    9fe8:	e3d02102 	bics	r2, r0, #-2147483648	; 0x80000000
    9fec:	1affffa2 	bne	9e7c <__aeabi_fmul+0x178>
    9ff0:	e3d13102 	bics	r3, r1, #-2147483648	; 0x80000000
    9ff4:	1affff8e 	bne	9e34 <__aeabi_fmul+0x130>
    9ff8:	eaffffa4 	b	9e90 <__aeabi_fmul+0x18c>

00009ffc <__gesf2>:
    9ffc:	e3e0c000 	mvn	ip, #0
    a000:	ea000002 	b	a010 <__cmpsf2+0x4>

0000a004 <__lesf2>:
    a004:	e3a0c001 	mov	ip, #1
    a008:	ea000000 	b	a010 <__cmpsf2+0x4>

0000a00c <__cmpsf2>:
    a00c:	e3a0c001 	mov	ip, #1
    a010:	e52dc004 	push	{ip}		; (str ip, [sp, #-4]!)
    a014:	e1a02080 	lsl	r2, r0, #1
    a018:	e1a03081 	lsl	r3, r1, #1
    a01c:	e1f0cc42 	mvns	ip, r2, asr #24
    a020:	11f0cc43 	mvnsne	ip, r3, asr #24
    a024:	0a000007 	beq	a048 <__cmpsf2+0x3c>
    a028:	e28dd004 	add	sp, sp, #4
    a02c:	e192c0a3 	orrs	ip, r2, r3, lsr #1
    a030:	11300001 	teqne	r0, r1
    a034:	50520003 	subspl	r0, r2, r3
    a038:	81a00fc1 	asrhi	r0, r1, #31
    a03c:	31e00fc1 	mvncc	r0, r1, asr #31
    a040:	13800001 	orrne	r0, r0, #1
    a044:	e12fff1e 	bx	lr
    a048:	e1f0cc42 	mvns	ip, r2, asr #24
    a04c:	1a000001 	bne	a058 <__cmpsf2+0x4c>
    a050:	e1b0c480 	lsls	ip, r0, #9
    a054:	1a000003 	bne	a068 <__cmpsf2+0x5c>
    a058:	e1f0cc43 	mvns	ip, r3, asr #24
    a05c:	1afffff1 	bne	a028 <__cmpsf2+0x1c>
    a060:	e1b0c481 	lsls	ip, r1, #9
    a064:	0affffef 	beq	a028 <__cmpsf2+0x1c>
    a068:	e49d0004 	pop	{r0}		; (ldr r0, [sp], #4)
    a06c:	e12fff1e 	bx	lr

0000a070 <__aeabi_cfrcmple>:
    a070:	e1a0c000 	mov	ip, r0
    a074:	e1a00001 	mov	r0, r1
    a078:	e1a0100c 	mov	r1, ip
    a07c:	eaffffff 	b	a080 <__aeabi_cfcmpeq>

0000a080 <__aeabi_cfcmpeq>:
    a080:	e92d400f 	push	{r0, r1, r2, r3, lr}
    a084:	ebffffe0 	bl	a00c <__cmpsf2>
    a088:	e3500000 	cmp	r0, #0
    a08c:	43700000 	cmnmi	r0, #0
    a090:	e8bd400f 	pop	{r0, r1, r2, r3, lr}
    a094:	e12fff1e 	bx	lr

0000a098 <__aeabi_fcmpeq>:
    a098:	e52de008 	str	lr, [sp, #-8]!
    a09c:	ebfffff7 	bl	a080 <__aeabi_cfcmpeq>
    a0a0:	03a00001 	moveq	r0, #1
    a0a4:	13a00000 	movne	r0, #0
    a0a8:	e49de008 	ldr	lr, [sp], #8
    a0ac:	e12fff1e 	bx	lr

0000a0b0 <__aeabi_fcmplt>:
    a0b0:	e52de008 	str	lr, [sp, #-8]!
    a0b4:	ebfffff1 	bl	a080 <__aeabi_cfcmpeq>
    a0b8:	33a00001 	movcc	r0, #1
    a0bc:	23a00000 	movcs	r0, #0
    a0c0:	e49de008 	ldr	lr, [sp], #8
    a0c4:	e12fff1e 	bx	lr

0000a0c8 <__aeabi_fcmple>:
    a0c8:	e52de008 	str	lr, [sp, #-8]!
    a0cc:	ebffffeb 	bl	a080 <__aeabi_cfcmpeq>
    a0d0:	93a00001 	movls	r0, #1
    a0d4:	83a00000 	movhi	r0, #0
    a0d8:	e49de008 	ldr	lr, [sp], #8
    a0dc:	e12fff1e 	bx	lr

0000a0e0 <__aeabi_fcmpge>:
    a0e0:	e52de008 	str	lr, [sp, #-8]!
    a0e4:	ebffffe1 	bl	a070 <__aeabi_cfrcmple>
    a0e8:	93a00001 	movls	r0, #1
    a0ec:	83a00000 	movhi	r0, #0
    a0f0:	e49de008 	ldr	lr, [sp], #8
    a0f4:	e12fff1e 	bx	lr

0000a0f8 <__aeabi_fcmpgt>:
    a0f8:	e52de008 	str	lr, [sp, #-8]!
    a0fc:	ebffffdb 	bl	a070 <__aeabi_cfrcmple>
    a100:	33a00001 	movcc	r0, #1
    a104:	23a00000 	movcs	r0, #0
    a108:	e49de008 	ldr	lr, [sp], #8
    a10c:	e12fff1e 	bx	lr

0000a110 <__aeabi_uldivmod>:
    a110:	e3530000 	cmp	r3, #0
    a114:	03520000 	cmpeq	r2, #0
    a118:	1a000004 	bne	a130 <__aeabi_uldivmod+0x20>
    a11c:	e3510000 	cmp	r1, #0
    a120:	03500000 	cmpeq	r0, #0
    a124:	13e01000 	mvnne	r1, #0
    a128:	13e00000 	mvnne	r0, #0
    a12c:	eafffe48 	b	9a54 <__aeabi_idiv0>
    a130:	e24dd008 	sub	sp, sp, #8
    a134:	e92d6000 	push	{sp, lr}
    a138:	eb000025 	bl	a1d4 <__gnu_uldivmod_helper>
    a13c:	e59de004 	ldr	lr, [sp, #4]
    a140:	e28dd008 	add	sp, sp, #8
    a144:	e8bd000c 	pop	{r2, r3}
    a148:	e12fff1e 	bx	lr

0000a14c <__popcountsi2>:
    a14c:	e59f3030 	ldr	r3, [pc, #48]	; a184 <__popcountsi2+0x38>
    a150:	e59f2030 	ldr	r2, [pc, #48]	; a188 <__popcountsi2+0x3c>
    a154:	e00330a0 	and	r3, r3, r0, lsr #1
    a158:	e0630000 	rsb	r0, r3, r0
    a15c:	e0003002 	and	r3, r0, r2
    a160:	e0022120 	and	r2, r2, r0, lsr #2
    a164:	e0823003 	add	r3, r2, r3
    a168:	e59f001c 	ldr	r0, [pc, #28]	; a18c <__popcountsi2+0x40>
    a16c:	e0833223 	add	r3, r3, r3, lsr #4
    a170:	e0000003 	and	r0, r0, r3
    a174:	e0800400 	add	r0, r0, r0, lsl #8
    a178:	e0800800 	add	r0, r0, r0, lsl #16
    a17c:	e1a00c20 	lsr	r0, r0, #24
    a180:	e12fff1e 	bx	lr
    a184:	55555555 	ldrbpl	r5, [r5, #-1365]	; 0x555
    a188:	33333333 	teqcc	r3, #-872415232	; 0xcc000000
    a18c:	0f0f0f0f 	svceq	0x000f0f0f

0000a190 <__gnu_ldivmod_helper>:
    a190:	e92d47f0 	push	{r4, r5, r6, r7, r8, r9, sl, lr}
    a194:	e59d6020 	ldr	r6, [sp, #32]
    a198:	e1a07002 	mov	r7, r2
    a19c:	e1a0a003 	mov	sl, r3
    a1a0:	e1a04000 	mov	r4, r0
    a1a4:	e1a05001 	mov	r5, r1
    a1a8:	eb000019 	bl	a214 <__divdi3>
    a1ac:	e1a03000 	mov	r3, r0
    a1b0:	e0020197 	mul	r2, r7, r1
    a1b4:	e0898097 	umull	r8, r9, r7, r0
    a1b8:	e023239a 	mla	r3, sl, r3, r2
    a1bc:	e0544008 	subs	r4, r4, r8
    a1c0:	e0839009 	add	r9, r3, r9
    a1c4:	e0c55009 	sbc	r5, r5, r9
    a1c8:	e8860030 	stm	r6, {r4, r5}
    a1cc:	e8bd47f0 	pop	{r4, r5, r6, r7, r8, r9, sl, lr}
    a1d0:	e12fff1e 	bx	lr

0000a1d4 <__gnu_uldivmod_helper>:
    a1d4:	e92d41f0 	push	{r4, r5, r6, r7, r8, lr}
    a1d8:	e59d5018 	ldr	r5, [sp, #24]
    a1dc:	e1a04002 	mov	r4, r2
    a1e0:	e1a08003 	mov	r8, r3
    a1e4:	e1a06000 	mov	r6, r0
    a1e8:	e1a07001 	mov	r7, r1
    a1ec:	eb000066 	bl	a38c <__udivdi3>
    a1f0:	e0080890 	mul	r8, r0, r8
    a1f4:	e0832490 	umull	r2, r3, r0, r4
    a1f8:	e0248491 	mla	r4, r1, r4, r8
    a1fc:	e0566002 	subs	r6, r6, r2
    a200:	e0843003 	add	r3, r4, r3
    a204:	e0c77003 	sbc	r7, r7, r3
    a208:	e88500c0 	stm	r5, {r6, r7}
    a20c:	e8bd41f0 	pop	{r4, r5, r6, r7, r8, lr}
    a210:	e12fff1e 	bx	lr

0000a214 <__divdi3>:
    a214:	e3510000 	cmp	r1, #0
    a218:	e92d4ff8 	push	{r3, r4, r5, r6, r7, r8, r9, sl, fp, lr}
    a21c:	a1a04000 	movge	r4, r0
    a220:	a1a05001 	movge	r5, r1
    a224:	a3a0a000 	movge	sl, #0
    a228:	ba000053 	blt	a37c <__divdi3+0x168>
    a22c:	e3530000 	cmp	r3, #0
    a230:	a1a08002 	movge	r8, r2
    a234:	a1a09003 	movge	r9, r3
    a238:	ba00004b 	blt	a36c <__divdi3+0x158>
    a23c:	e1550009 	cmp	r5, r9
    a240:	01540008 	cmpeq	r4, r8
    a244:	33a02000 	movcc	r2, #0
    a248:	33a03000 	movcc	r3, #0
    a24c:	3a00003b 	bcc	a340 <__divdi3+0x12c>
    a250:	e1a01009 	mov	r1, r9
    a254:	e1a00008 	mov	r0, r8
    a258:	eb000093 	bl	a4ac <__clzdi2>
    a25c:	e1a01005 	mov	r1, r5
    a260:	e1a0b000 	mov	fp, r0
    a264:	e1a00004 	mov	r0, r4
    a268:	eb00008f 	bl	a4ac <__clzdi2>
    a26c:	e060000b 	rsb	r0, r0, fp
    a270:	e240e020 	sub	lr, r0, #32
    a274:	e1a07019 	lsl	r7, r9, r0
    a278:	e1877e18 	orr	r7, r7, r8, lsl lr
    a27c:	e260c020 	rsb	ip, r0, #32
    a280:	e1877c38 	orr	r7, r7, r8, lsr ip
    a284:	e1550007 	cmp	r5, r7
    a288:	e1a06018 	lsl	r6, r8, r0
    a28c:	01540006 	cmpeq	r4, r6
    a290:	e1a01000 	mov	r1, r0
    a294:	33a02000 	movcc	r2, #0
    a298:	33a03000 	movcc	r3, #0
    a29c:	3a000005 	bcc	a2b8 <__divdi3+0xa4>
    a2a0:	e3a08001 	mov	r8, #1
    a2a4:	e0544006 	subs	r4, r4, r6
    a2a8:	e1a03e18 	lsl	r3, r8, lr
    a2ac:	e1833c38 	orr	r3, r3, r8, lsr ip
    a2b0:	e0c55007 	sbc	r5, r5, r7
    a2b4:	e1a02018 	lsl	r2, r8, r0
    a2b8:	e3500000 	cmp	r0, #0
    a2bc:	0a00001f 	beq	a340 <__divdi3+0x12c>
    a2c0:	e1b070a7 	lsrs	r7, r7, #1
    a2c4:	e1a06066 	rrx	r6, r6
    a2c8:	ea000007 	b	a2ec <__divdi3+0xd8>
    a2cc:	e0544006 	subs	r4, r4, r6
    a2d0:	e0c55007 	sbc	r5, r5, r7
    a2d4:	e0944004 	adds	r4, r4, r4
    a2d8:	e0a55005 	adc	r5, r5, r5
    a2dc:	e2944001 	adds	r4, r4, #1
    a2e0:	e2a55000 	adc	r5, r5, #0
    a2e4:	e2500001 	subs	r0, r0, #1
    a2e8:	0a000006 	beq	a308 <__divdi3+0xf4>
    a2ec:	e1570005 	cmp	r7, r5
    a2f0:	01560004 	cmpeq	r6, r4
    a2f4:	9afffff4 	bls	a2cc <__divdi3+0xb8>
    a2f8:	e0944004 	adds	r4, r4, r4
    a2fc:	e0a55005 	adc	r5, r5, r5
    a300:	e2500001 	subs	r0, r0, #1
    a304:	1afffff8 	bne	a2ec <__divdi3+0xd8>
    a308:	e261c020 	rsb	ip, r1, #32
    a30c:	e1a00134 	lsr	r0, r4, r1
    a310:	e0922004 	adds	r2, r2, r4
    a314:	e241e020 	sub	lr, r1, #32
    a318:	e1800c15 	orr	r0, r0, r5, lsl ip
    a31c:	e1a04135 	lsr	r4, r5, r1
    a320:	e1800e35 	orr	r0, r0, r5, lsr lr
    a324:	e1a07114 	lsl	r7, r4, r1
    a328:	e1877e10 	orr	r7, r7, r0, lsl lr
    a32c:	e1a06110 	lsl	r6, r0, r1
    a330:	e0a33005 	adc	r3, r3, r5
    a334:	e1877c30 	orr	r7, r7, r0, lsr ip
    a338:	e0522006 	subs	r2, r2, r6
    a33c:	e0c33007 	sbc	r3, r3, r7
    a340:	e29a0000 	adds	r0, sl, #0
    a344:	13a00001 	movne	r0, #1
    a348:	e3a01000 	mov	r1, #0
    a34c:	e2704000 	rsbs	r4, r0, #0
    a350:	e2e15000 	rsc	r5, r1, #0
    a354:	e0222004 	eor	r2, r2, r4
    a358:	e0233005 	eor	r3, r3, r5
    a35c:	e0900002 	adds	r0, r0, r2
    a360:	e0a11003 	adc	r1, r1, r3
    a364:	e8bd4ff8 	pop	{r3, r4, r5, r6, r7, r8, r9, sl, fp, lr}
    a368:	e12fff1e 	bx	lr
    a36c:	e2728000 	rsbs	r8, r2, #0
    a370:	e1e0a00a 	mvn	sl, sl
    a374:	e2e39000 	rsc	r9, r3, #0
    a378:	eaffffaf 	b	a23c <__divdi3+0x28>
    a37c:	e2704000 	rsbs	r4, r0, #0
    a380:	e2e15000 	rsc	r5, r1, #0
    a384:	e3e0a000 	mvn	sl, #0
    a388:	eaffffa7 	b	a22c <__divdi3+0x18>

0000a38c <__udivdi3>:
    a38c:	e1510003 	cmp	r1, r3
    a390:	01500002 	cmpeq	r0, r2
    a394:	e92d47f0 	push	{r4, r5, r6, r7, r8, r9, sl, lr}
    a398:	e1a04000 	mov	r4, r0
    a39c:	e1a05001 	mov	r5, r1
    a3a0:	e1a08002 	mov	r8, r2
    a3a4:	e1a09003 	mov	r9, r3
    a3a8:	33a00000 	movcc	r0, #0
    a3ac:	33a01000 	movcc	r1, #0
    a3b0:	3a00003b 	bcc	a4a4 <__udivdi3+0x118>
    a3b4:	e1a01003 	mov	r1, r3
    a3b8:	e1a00002 	mov	r0, r2
    a3bc:	eb00003a 	bl	a4ac <__clzdi2>
    a3c0:	e1a01005 	mov	r1, r5
    a3c4:	e1a0a000 	mov	sl, r0
    a3c8:	e1a00004 	mov	r0, r4
    a3cc:	eb000036 	bl	a4ac <__clzdi2>
    a3d0:	e060300a 	rsb	r3, r0, sl
    a3d4:	e243e020 	sub	lr, r3, #32
    a3d8:	e1a07319 	lsl	r7, r9, r3
    a3dc:	e1877e18 	orr	r7, r7, r8, lsl lr
    a3e0:	e263c020 	rsb	ip, r3, #32
    a3e4:	e1877c38 	orr	r7, r7, r8, lsr ip
    a3e8:	e1550007 	cmp	r5, r7
    a3ec:	e1a06318 	lsl	r6, r8, r3
    a3f0:	01540006 	cmpeq	r4, r6
    a3f4:	e1a02003 	mov	r2, r3
    a3f8:	33a00000 	movcc	r0, #0
    a3fc:	33a01000 	movcc	r1, #0
    a400:	3a000005 	bcc	a41c <__udivdi3+0x90>
    a404:	e3a08001 	mov	r8, #1
    a408:	e0544006 	subs	r4, r4, r6
    a40c:	e1a01e18 	lsl	r1, r8, lr
    a410:	e1811c38 	orr	r1, r1, r8, lsr ip
    a414:	e0c55007 	sbc	r5, r5, r7
    a418:	e1a00318 	lsl	r0, r8, r3
    a41c:	e3530000 	cmp	r3, #0
    a420:	0a00001f 	beq	a4a4 <__udivdi3+0x118>
    a424:	e1b070a7 	lsrs	r7, r7, #1
    a428:	e1a06066 	rrx	r6, r6
    a42c:	ea000007 	b	a450 <__udivdi3+0xc4>
    a430:	e0544006 	subs	r4, r4, r6
    a434:	e0c55007 	sbc	r5, r5, r7
    a438:	e0944004 	adds	r4, r4, r4
    a43c:	e0a55005 	adc	r5, r5, r5
    a440:	e2944001 	adds	r4, r4, #1
    a444:	e2a55000 	adc	r5, r5, #0
    a448:	e2533001 	subs	r3, r3, #1
    a44c:	0a000006 	beq	a46c <__udivdi3+0xe0>
    a450:	e1570005 	cmp	r7, r5
    a454:	01560004 	cmpeq	r6, r4
    a458:	9afffff4 	bls	a430 <__udivdi3+0xa4>
    a45c:	e0944004 	adds	r4, r4, r4
    a460:	e0a55005 	adc	r5, r5, r5
    a464:	e2533001 	subs	r3, r3, #1
    a468:	1afffff8 	bne	a450 <__udivdi3+0xc4>
    a46c:	e0948000 	adds	r8, r4, r0
    a470:	e0a59001 	adc	r9, r5, r1
    a474:	e1a03234 	lsr	r3, r4, r2
    a478:	e2621020 	rsb	r1, r2, #32
    a47c:	e2420020 	sub	r0, r2, #32
    a480:	e1833115 	orr	r3, r3, r5, lsl r1
    a484:	e1a0c235 	lsr	ip, r5, r2
    a488:	e1833035 	orr	r3, r3, r5, lsr r0
    a48c:	e1a0721c 	lsl	r7, ip, r2
    a490:	e1877013 	orr	r7, r7, r3, lsl r0
    a494:	e1a06213 	lsl	r6, r3, r2
    a498:	e1877133 	orr	r7, r7, r3, lsr r1
    a49c:	e0580006 	subs	r0, r8, r6
    a4a0:	e0c91007 	sbc	r1, r9, r7
    a4a4:	e8bd47f0 	pop	{r4, r5, r6, r7, r8, r9, sl, lr}
    a4a8:	e12fff1e 	bx	lr

0000a4ac <__clzdi2>:
    a4ac:	e92d4010 	push	{r4, lr}
    a4b0:	e3510000 	cmp	r1, #0
    a4b4:	1a000002 	bne	a4c4 <__clzdi2+0x18>
    a4b8:	eb000005 	bl	a4d4 <__clzsi2>
    a4bc:	e2800020 	add	r0, r0, #32
    a4c0:	ea000001 	b	a4cc <__clzdi2+0x20>
    a4c4:	e1a00001 	mov	r0, r1
    a4c8:	eb000001 	bl	a4d4 <__clzsi2>
    a4cc:	e8bd4010 	pop	{r4, lr}
    a4d0:	e12fff1e 	bx	lr

0000a4d4 <__clzsi2>:
    a4d4:	e3a0101c 	mov	r1, #28
    a4d8:	e3500801 	cmp	r0, #65536	; 0x10000
    a4dc:	21a00820 	lsrcs	r0, r0, #16
    a4e0:	22411010 	subcs	r1, r1, #16
    a4e4:	e3500c01 	cmp	r0, #256	; 0x100
    a4e8:	21a00420 	lsrcs	r0, r0, #8
    a4ec:	22411008 	subcs	r1, r1, #8
    a4f0:	e3500010 	cmp	r0, #16
    a4f4:	21a00220 	lsrcs	r0, r0, #4
    a4f8:	22411004 	subcs	r1, r1, #4
    a4fc:	e28f2008 	add	r2, pc, #8
    a500:	e7d20000 	ldrb	r0, [r2, r0]
    a504:	e0800001 	add	r0, r0, r1
    a508:	e12fff1e 	bx	lr
    a50c:	02020304 	andeq	r0, r2, #4, 6	; 0x10000000
    a510:	01010101 	tsteq	r1, r1, lsl #2
	...
